

Microchip Technology PIC18 LITE Macro Assembler V1.45 build -152302408 
                                                                                               Fri Mar 02 11:46:48 2018

Microchip Technology Omniscient Code Generator v1.45 (Free mode) build 201711160504
     1                           	processor	18F2553
     2                           	fnconf	rparam,??,?,0
     3                           	opt	pw 120
     4                           	opt	lm
     5                           	psect	idataCOMRAM,global,class=CODE,delta=1,noexec
     6                           	psect	cinit,global,reloc=2,class=CODE,delta=1
     7                           	psect	bssCOMRAM,global,class=COMRAM,space=1,delta=1,noexec
     8                           	psect	dataCOMRAM,global,class=COMRAM,space=1,delta=1,noexec
     9                           	psect	cstackCOMRAM,global,class=COMRAM,space=1,delta=1,noexec
    10                           	psect	text0,global,reloc=2,class=CODE,delta=1
    11                           	psect	text1,global,reloc=2,class=CODE,delta=1
    12                           	psect	text2,global,reloc=2,class=CODE,delta=1,group=1
    13                           	psect	text3,global,reloc=2,class=CODE,delta=1
    14                           	psect	text4,global,reloc=2,class=CODE,delta=1
    15                           	psect	text5,global,reloc=2,class=CODE,delta=1,group=1
    16                           	psect	text6,global,reloc=2,class=CODE,delta=1,group=1
    17                           	psect	text7,global,reloc=2,class=CODE,delta=1,group=1
    18                           	psect	intsave_regs,global,class=BIGRAM,space=1,delta=1,noexec
    19                           	psect	rparam,global,class=COMRAM,space=1,delta=1,noexec
    20  0000                     
    21                           ; Version 1.45
    22                           ; Generated 16/11/2017 GMT
    23                           ; 
    24                           ; Copyright © 2017, Microchip Technology Inc. and its subsidiaries ("Microchip")
    25                           ; All rights reserved.
    26                           ; 
    27                           ; This software is developed by Microchip Technology Inc. and its subsidiaries ("Microch
      +                          ip").
    28                           ; 
    29                           ; Redistribution and use in source and binary forms, with or without modification, are
    30                           ; permitted provided that the following conditions are met:
    31                           ; 
    32                           ;     1. Redistributions of source code must retain the above copyright notice, this lis
      +                          t of
    33                           ;        conditions and the following disclaimer.
    34                           ; 
    35                           ;     2. Redistributions in binary form must reproduce the above copyright notice, this 
      +                          list
    36                           ;        of conditions and the following disclaimer in the documentation and/or other
    37                           ;        materials provided with the distribution.
    38                           ; 
    39                           ;     3. Microchip's name may not be used to endorse or promote products derived from th
      +                          is
    40                           ;        software without specific prior written permission.
    41                           ; 
    42                           ; THIS SOFTWARE IS PROVIDED BY MICROCHIP "AS IS" AND ANY EXPRESS OR IMPLIED WARRANTIES,
    43                           ; INCLUDING, BUT NOT LIMITED TO, THE IMPLIED WARRANTIES OF MERCHANTABILITY AND FITNESS F
      +                          OR
    44                           ; PURPOSE ARE DISCLAIMED.  IN NO EVENT SHALL MICROCHIP BE LIABLE FOR ANY DIRECT, INDIREC
      +                          T,
    45                           ; INCIDENTAL, SPECIAL, EXEMPLARY, OR CONSEQUENTIAL DAMAGES (INCLUDING BUT NOT LIMITED TO
    46                           ; PROCUREMENT OF SUBSTITUTE GOODS OR SERVICES; LOSS OF USE, DATA OR PROFITS; OR BUSINESS
    47                           ; INTERRUPTION) HOWSOEVER CAUSED AND ON ANY THEORY OF LIABILITY, WHETHER IN CONTRACT, ST
      +                          RICT
    48                           ; LIABILITY, OR TORT (INCLUDING NEGLIGENCE OR OTHERWISE) ARISING IN ANY WAY OUT OF THE U
      +                          SE OF
    49                           ; THIS SOFTWARE, EVEN IF ADVISED OF THE POSSIBILITY OF SUCH DAMAGE.
    50                           ; 
    51                           ; 
    52                           ; Code-generator required, PIC18F2553 Definitions
    53                           ; 
    54                           ; SFR Addresses
    55  0000                     
    56                           	psect	idataCOMRAM
    57  002008                     __pidataCOMRAM:
    58                           	opt stack 0
    59                           
    60                           ;initializer for _kp
    61  002008  0000               	dw	0
    62  00200A  41A0               	dw	16800
    63  0000                     _PORTC	set	3970
    64  0000                     _PORTB	set	3969
    65  0000                     _PORTA	set	3968
    66  0000                     _TRISC	set	3988
    67  0000                     _TRISB	set	3987
    68  0000                     _TRISA	set	3986
    69  0000                     _ADCON1	set	4033
    70  0000                     _PORTBbits	set	3969
    71  0000                     _PORTAbits	set	3968
    72                           
    73                           ; #config settings
    74                           
    75                           	psect	cinit
    76  007276                     __pcinit:
    77                           	opt stack 0
    78  007276                     start_initialization:
    79                           	opt stack 0
    80  007276                     __initialization:
    81                           	opt stack 0
    82                           
    83                           ; Initialize objects allocated to COMRAM (4 bytes)
    84                           ; load TBLPTR registers with __pidataCOMRAM
    85  007276  0E08               	movlw	low __pidataCOMRAM
    86  007278  6EF6               	movwf	tblptrl,c
    87  00727A  0E20               	movlw	high __pidataCOMRAM
    88  00727C  6EF7               	movwf	tblptrh,c
    89  00727E  0E00               	movlw	low (__pidataCOMRAM shr (0+16))
    90  007280  6EF8               	movwf	tblptru,c
    91  007282  EE00  F056         	lfsr	0,__pdataCOMRAM
    92  007286  EE10 F004          	lfsr	1,4
    93  00728A                     copy_data0:
    94  00728A  0009               	tblrd		*+
    95  00728C  CFF5 FFEE          	movff	tablat,postinc0
    96  007290  50E5               	movf	postdec1,w,c
    97  007292  50E1               	movf	fsr1l,w,c
    98  007294  E1FA               	bnz	copy_data0
    99                           
   100                           ; Clear objects allocated to COMRAM (28 bytes)
   101  007296  EE00  F03A         	lfsr	0,__pbssCOMRAM
   102  00729A  0E1C               	movlw	28
   103  00729C                     clear_0:
   104  00729C  6AEE               	clrf	postinc0,c
   105  00729E  06E8               	decf	wreg,f,c
   106  0072A0  E1FD               	bnz	clear_0
   107  0072A2                     end_of_initialization:
   108                           	opt stack 0
   109  0072A2                     __end_of__initialization:
   110                           	opt stack 0
   111  0072A2  0100               	movlb	0
   112  0072A4  EFF0  F03B         	goto	_main	;jump to C main() function
   113                           tblptru	equ	0xFF8
   114                           tblptrh	equ	0xFF7
   115                           tblptrl	equ	0xFF6
   116                           tablat	equ	0xFF5
   117                           postinc0	equ	0xFEE
   118                           wreg	equ	0xFE8
   119                           postdec1	equ	0xFE5
   120                           fsr1l	equ	0xFE1
   121                           
   122                           	psect	bssCOMRAM
   123  00003A                     __pbssCOMRAM:
   124                           	opt stack 0
   125  00003A                     _pid:
   126                           	opt stack 0
   127  00003A                     	ds	4
   128  00003E                     _D:
   129                           	opt stack 0
   130  00003E                     	ds	4
   131  000042                     _I:
   132                           	opt stack 0
   133  000042                     	ds	4
   134  000046                     _P:
   135                           	opt stack 0
   136  000046                     	ds	4
   137  00004A                     _kd:
   138                           	opt stack 0
   139  00004A                     	ds	4
   140  00004E                     _ki:
   141                           	opt stack 0
   142  00004E                     	ds	4
   143  000052                     _previous_error:
   144                           	opt stack 0
   145  000052                     	ds	2
   146  000054                     _error:
   147                           	opt stack 0
   148  000054                     	ds	2
   149                           tblptru	equ	0xFF8
   150                           tblptrh	equ	0xFF7
   151                           tblptrl	equ	0xFF6
   152                           tablat	equ	0xFF5
   153                           postinc0	equ	0xFEE
   154                           wreg	equ	0xFE8
   155                           postdec1	equ	0xFE5
   156                           fsr1l	equ	0xFE1
   157                           
   158                           	psect	dataCOMRAM
   159  000056                     __pdataCOMRAM:
   160                           	opt stack 0
   161  000056                     _kp:
   162                           	opt stack 0
   163  000056                     	ds	4
   164                           tblptru	equ	0xFF8
   165                           tblptrh	equ	0xFF7
   166                           tblptrl	equ	0xFF6
   167                           tablat	equ	0xFF5
   168                           postinc0	equ	0xFEE
   169                           wreg	equ	0xFE8
   170                           postdec1	equ	0xFE5
   171                           fsr1l	equ	0xFE1
   172                           
   173                           	psect	cstackCOMRAM
   174  000001                     __pcstackCOMRAM:
   175                           	opt stack 0
   176  000001                     ?___flmul:
   177                           	opt stack 0
   178  000001                     ?___xxtofl:
   179                           	opt stack 0
   180  000001                     ___flge@ff1:
   181                           	opt stack 0
   182  000001                     ___flmul@b:
   183                           	opt stack 0
   184  000001                     ___xxtofl@val:
   185                           	opt stack 0
   186                           
   187                           ; 4 bytes @ 0x0
   188  000001                     	ds	4
   189  000005                     ??___xxtofl:
   190  000005                     ___flge@ff2:
   191                           	opt stack 0
   192  000005                     ___flmul@a:
   193                           	opt stack 0
   194                           
   195                           ; 4 bytes @ 0x4
   196  000005                     	ds	4
   197  000009                     ??___flmul:
   198  000009                     ??___flge:
   199  000009                     ___xxtofl@sign:
   200                           	opt stack 0
   201                           
   202                           ; 1 bytes @ 0x8
   203  000009                     	ds	1
   204  00000A                     ___xxtofl@exp:
   205                           	opt stack 0
   206                           
   207                           ; 1 bytes @ 0x9
   208  00000A                     	ds	1
   209  00000B                     ___xxtofl@arg:
   210                           	opt stack 0
   211                           
   212                           ; 4 bytes @ 0xA
   213  00000B                     	ds	2
   214  00000D                     ___flmul@sign:
   215                           	opt stack 0
   216                           
   217                           ; 1 bytes @ 0xC
   218  00000D                     	ds	1
   219  00000E                     ___flmul@grs:
   220                           	opt stack 0
   221                           
   222                           ; 4 bytes @ 0xD
   223  00000E                     	ds	4
   224  000012                     ___flmul@aexp:
   225                           	opt stack 0
   226                           
   227                           ; 1 bytes @ 0x11
   228  000012                     	ds	1
   229  000013                     ___flmul@bexp:
   230                           	opt stack 0
   231                           
   232                           ; 1 bytes @ 0x12
   233  000013                     	ds	1
   234  000014                     ___flmul@prod:
   235                           	opt stack 0
   236                           
   237                           ; 4 bytes @ 0x13
   238  000014                     	ds	4
   239  000018                     ___flmul@temp:
   240                           	opt stack 0
   241                           
   242                           ; 2 bytes @ 0x17
   243  000018                     	ds	2
   244  00001A                     ?___fladd:
   245                           	opt stack 0
   246  00001A                     ___fladd@b:
   247                           	opt stack 0
   248                           
   249                           ; 4 bytes @ 0x19
   250  00001A                     	ds	4
   251  00001E                     ___fladd@a:
   252                           	opt stack 0
   253                           
   254                           ; 4 bytes @ 0x1D
   255  00001E                     	ds	4
   256  000022                     ??___fladd:
   257                           
   258                           ; 1 bytes @ 0x21
   259  000022                     	ds	8
   260  00002A                     ___fladd@signs:
   261                           	opt stack 0
   262                           
   263                           ; 1 bytes @ 0x29
   264  00002A                     	ds	1
   265  00002B                     ___fladd@aexp:
   266                           	opt stack 0
   267                           
   268                           ; 1 bytes @ 0x2A
   269  00002B                     	ds	1
   270  00002C                     ___fladd@bexp:
   271                           	opt stack 0
   272                           
   273                           ; 1 bytes @ 0x2B
   274  00002C                     	ds	1
   275  00002D                     ___fladd@grs:
   276                           	opt stack 0
   277                           
   278                           ; 1 bytes @ 0x2C
   279  00002D                     	ds	1
   280  00002E                     ?_getPID:
   281                           	opt stack 0
   282  00002E                     wait00@k:
   283                           	opt stack 0
   284                           
   285                           ; 4 bytes @ 0x2D
   286  00002E                     	ds	4
   287  000032                     ??_getPID:
   288  000032                     wait00@j:
   289                           	opt stack 0
   290                           
   291                           ; 4 bytes @ 0x31
   292  000032                     	ds	2
   293  000034                     _getPID$714:
   294                           	opt stack 0
   295                           
   296                           ; 4 bytes @ 0x33
   297  000034                     	ds	2
   298  000036                     wait00@i:
   299                           	opt stack 0
   300                           
   301                           ; 4 bytes @ 0x35
   302  000036                     	ds	4
   303  00003A                     tblptru	equ	0xFF8
   304                           tblptrh	equ	0xFF7
   305                           tblptrl	equ	0xFF6
   306                           tablat	equ	0xFF5
   307                           postinc0	equ	0xFEE
   308                           wreg	equ	0xFE8
   309                           postdec1	equ	0xFE5
   310                           fsr1l	equ	0xFE1
   311                           
   312                           ; 1 bytes @ 0x39
   313 ;;
   314 ;;Main: autosize = 0, tempsize = 0, incstack = 0, save=0
   315 ;;
   316 ;; *************** function _main *****************
   317 ;; Defined at:
   318 ;;		line 55 in file "main.c"
   319 ;; Parameters:    Size  Location     Type
   320 ;;		None
   321 ;; Auto vars:     Size  Location     Type
   322 ;;		None
   323 ;; Return value:  Size  Location     Type
   324 ;;                  2   61[None  ] int 
   325 ;; Registers used:
   326 ;;		wreg, status,2, status,0, prodl, prodh, cstack
   327 ;; Tracked objects:
   328 ;;		On entry : 0/0
   329 ;;		On exit  : 0/0
   330 ;;		Unchanged: 0/0
   331 ;; Data sizes:     COMRAM   BANK0   BANK1   BANK2   BANK3   BANK4   BANK5   BANK6   BANK7
   332 ;;      Params:         0       0       0       0       0       0       0       0       0
   333 ;;      Locals:         0       0       0       0       0       0       0       0       0
   334 ;;      Temps:          0       0       0       0       0       0       0       0       0
   335 ;;      Totals:         0       0       0       0       0       0       0       0       0
   336 ;;Total ram usage:        0 bytes
   337 ;; Hardware stack levels required when called:    2
   338 ;; This function calls:
   339 ;;		_getPID
   340 ;;		_led_sens
   341 ;;		_wait00
   342 ;; This function is called by:
   343 ;;		Startup code after reset
   344 ;; This function uses a non-reentrant model
   345 ;;
   346                           
   347                           	psect	text0
   348  0077E0                     __ptext0:
   349                           	opt stack 0
   350  0077E0                     _main:
   351                           	opt stack 29
   352                           
   353                           ;main.c: 58: ADCON1 = 0x0F;
   354                           
   355                           ;incstack = 0
   356  0077E0  0E0F               	movlw	15
   357  0077E2  6EC1               	movwf	4033,c	;volatile
   358                           
   359                           ;main.c: 61: TRISA = 0x20;
   360  0077E4  0E20               	movlw	32
   361  0077E6  6E92               	movwf	3986,c	;volatile
   362                           
   363                           ;main.c: 62: TRISB = 0xFF;
   364  0077E8  6893               	setf	3987,c	;volatile
   365                           
   366                           ;main.c: 63: TRISC = 0x00;
   367  0077EA  0E00               	movlw	0
   368  0077EC  6E94               	movwf	3988,c	;volatile
   369                           
   370                           ;main.c: 66: PORTA = 0x00;
   371  0077EE  0E00               	movlw	0
   372  0077F0  6E80               	movwf	3968,c	;volatile
   373                           
   374                           ;main.c: 67: PORTB = 0x00;
   375  0077F2  0E00               	movlw	0
   376  0077F4  6E81               	movwf	3969,c	;volatile
   377                           
   378                           ;main.c: 68: PORTC = 0x00;
   379  0077F6  0E00               	movlw	0
   380  0077F8  6E82               	movwf	3970,c	;volatile
   381                           
   382                           ;main.c: 71: while(PORTAbits.RA5==1){
   383  0077FA  D002               	goto	l62
   384  0077FC                     
   385                           ;main.c: 72: led_sens();
   386  0077FC  EC54  F039         	call	_led_sens	;wreg free
   387  007800                     l62:
   388  007800  BA80               	btfsc	3968,5,c	;volatile
   389  007802  D7FC               	goto	l63
   390  007804                     u2210:
   391                           
   392                           ;main.c: 77: led_sens();
   393                           
   394                           ;main.c: 73: }
   395                           ;main.c: 76: while (1) {
   396  007804  EC54  F039         	call	_led_sens	;wreg free
   397                           
   398                           ;main.c: 79: error = 0;
   399  007808  0E00               	movlw	0
   400  00780A  6E55               	movwf	_error+1,c
   401  00780C  0E00               	movlw	0
   402  00780E  6E54               	movwf	_error,c
   403                           
   404                           ;main.c: 80: if(PORTBbits.RB0==0 && PORTBbits.RB1==1 && PORTBbits.RB2==1 && PORTBbits.RB
      +                          3==1 && PORTBbits.RB4==1){
   405  007810  A081               	btfss	3969,0,c	;volatile
   406  007812  A281               	btfss	3969,1,c	;volatile
   407  007814  D009               	goto	l66
   408  007816  B481               	btfsc	3969,2,c	;volatile
   409  007818  A681               	btfss	3969,3,c	;volatile
   410  00781A  D006               	goto	l66
   411  00781C  A881               	btfss	3969,4,c	;volatile
   412  00781E  D004               	goto	l66
   413  007820                     u2260:
   414                           
   415                           ;main.c: 82: error = -3;
   416  007820  0EFF               	movlw	255
   417  007822  6E55               	movwf	_error+1,c
   418  007824  0EFD               	movlw	253
   419  007826  D06A               	goto	L9
   420  007828                     l66:
   421                           
   422                           ;main.c: 84: else if (PORTBbits.RB0==0 && PORTBbits.RB1==0 && PORTBbits.RB2==1 && PORTBb
      +                          its.RB3==1 && PORTBbits.RB4==1){
   423  007828  A081               	btfss	3969,0,c	;volatile
   424  00782A  B281               	btfsc	3969,1,c	;volatile
   425  00782C  D009               	goto	l68
   426  00782E  B481               	btfsc	3969,2,c	;volatile
   427  007830  A681               	btfss	3969,3,c	;volatile
   428  007832  D006               	goto	l68
   429  007834  A881               	btfss	3969,4,c	;volatile
   430  007836  D004               	goto	l68
   431  007838                     u2310:
   432                           
   433                           ;main.c: 85: error = -2;
   434  007838  0EFF               	movlw	255
   435  00783A  6E55               	movwf	_error+1,c
   436  00783C  0EFE               	movlw	254
   437  00783E  D05E               	goto	L9
   438  007840                     l68:
   439                           
   440                           ;main.c: 87: else if (PORTBbits.RB0==1 && PORTBbits.RB1==0 && PORTBbits.RB2==1 && PORTBb
      +                          its.RB3==1 && PORTBbits.RB4==1){
   441  007840  B081               	btfsc	3969,0,c	;volatile
   442  007842  B281               	btfsc	3969,1,c	;volatile
   443  007844  D005               	goto	l70
   444  007846  B481               	btfsc	3969,2,c	;volatile
   445  007848  A681               	btfss	3969,3,c	;volatile
   446  00784A  D002               	goto	l70
   447  00784C  B881               	btfsc	3969,4,c	;volatile
   448  00784E  D038               	goto	u2660
   449  007850                     l70:
   450                           
   451                           ;main.c: 92: else if (PORTBbits.RB0==1 && PORTBbits.RB1==1 && PORTBbits.RB2==1 && PORTBb
      +                          its.RB3==1 && PORTBbits.RB4==0){
   452  007850  B081               	btfsc	3969,0,c	;volatile
   453  007852  A281               	btfss	3969,1,c	;volatile
   454  007854  D009               	goto	l72
   455  007856  B481               	btfsc	3969,2,c	;volatile
   456  007858  A681               	btfss	3969,3,c	;volatile
   457  00785A  D006               	goto	l72
   458  00785C  B881               	btfsc	3969,4,c	;volatile
   459  00785E  D004               	goto	l72
   460  007860                     u2410:
   461                           
   462                           ;main.c: 93: error = 3;
   463  007860  0E00               	movlw	0
   464  007862  6E55               	movwf	_error+1,c
   465  007864  0E03               	movlw	3
   466  007866  D04A               	goto	L9
   467  007868                     l72:
   468                           
   469                           ;main.c: 95: else if (PORTBbits.RB0==1 && PORTBbits.RB1==1 && PORTBbits.RB2==1 && PORTBb
      +                          its.RB3==0 && PORTBbits.RB4==0){
   470  007868  B081               	btfsc	3969,0,c	;volatile
   471  00786A  A281               	btfss	3969,1,c	;volatile
   472  00786C  D009               	goto	l74
   473  00786E  B481               	btfsc	3969,2,c	;volatile
   474  007870  B681               	btfsc	3969,3,c	;volatile
   475  007872  D006               	goto	l74
   476  007874  B881               	btfsc	3969,4,c	;volatile
   477  007876  D004               	goto	l74
   478  007878                     u2460:
   479                           
   480                           ;main.c: 96: error = 2;
   481  007878  0E00               	movlw	0
   482  00787A  6E55               	movwf	_error+1,c
   483  00787C  0E02               	movlw	2
   484  00787E  D03E               	goto	L9
   485  007880                     l74:
   486                           
   487                           ;main.c: 98: else if (PORTBbits.RB0==1 && PORTBbits.RB1==1 && PORTBbits.RB2==1 && PORTBb
      +                          its.RB3==0 && PORTBbits.RB4==1){
   488  007880  B081               	btfsc	3969,0,c	;volatile
   489  007882  A281               	btfss	3969,1,c	;volatile
   490  007884  D005               	goto	l76
   491  007886  B481               	btfsc	3969,2,c	;volatile
   492  007888  B681               	btfsc	3969,3,c	;volatile
   493  00788A  D002               	goto	l76
   494  00788C  B881               	btfsc	3969,4,c	;volatile
   495  00788E  D033               	goto	L15
   496  007890                     l76:
   497                           
   498                           ;main.c: 104: else if (PORTBbits.RB0==1 && PORTBbits.RB1==0 && PORTBbits.RB2==0 && PORTB
      +                          bits.RB3==0 && PORTBbits.RB4==0){
   499  007890  B081               	btfsc	3969,0,c	;volatile
   500  007892  B281               	btfsc	3969,1,c	;volatile
   501  007894  D005               	goto	l78
   502  007896  A481               	btfss	3969,2,c	;volatile
   503  007898  B681               	btfsc	3969,3,c	;volatile
   504  00789A  D002               	goto	l78
   505  00789C  A881               	btfss	3969,4,c	;volatile
   506  00789E  D7C0               	goto	u2260
   507  0078A0                     l78:
   508                           
   509                           ;main.c: 107: else if (PORTBbits.RB0==1 && PORTBbits.RB1==1 && PORTBbits.RB2==0 && PORTB
      +                          bits.RB3==0 && PORTBbits.RB4==0){
   510  0078A0  B081               	btfsc	3969,0,c	;volatile
   511  0078A2  A281               	btfss	3969,1,c	;volatile
   512  0078A4  D005               	goto	l80
   513  0078A6  A481               	btfss	3969,2,c	;volatile
   514  0078A8  B681               	btfsc	3969,3,c	;volatile
   515  0078AA  D002               	goto	l80
   516  0078AC  A881               	btfss	3969,4,c	;volatile
   517  0078AE  D7C4               	goto	u2310
   518  0078B0                     l80:
   519                           
   520                           ;main.c: 110: else if (PORTBbits.RB0==0 && PORTBbits.RB1==1 && PORTBbits.RB2==0 && PORTB
      +                          bits.RB3==0 && PORTBbits.RB4==0){
   521  0078B0  A081               	btfss	3969,0,c	;volatile
   522  0078B2  A281               	btfss	3969,1,c	;volatile
   523  0078B4  D008               	goto	l82
   524  0078B6  A481               	btfss	3969,2,c	;volatile
   525  0078B8  B681               	btfsc	3969,3,c	;volatile
   526  0078BA  D005               	goto	l82
   527  0078BC  B881               	btfsc	3969,4,c	;volatile
   528  0078BE  D003               	goto	l82
   529  0078C0                     u2660:
   530                           
   531                           ;main.c: 111: error = -1;
   532  0078C0  6854               	setf	_error,c
   533  0078C2  6855               	setf	_error+1,c
   534                           
   535                           ;main.c: 112: }
   536  0078C4  D01C               	goto	l88
   537  0078C6                     l82:
   538                           
   539                           ;main.c: 115: else if (PORTBbits.RB0==0 && PORTBbits.RB1==0 && PORTBbits.RB2==0 && PORTB
      +                          bits.RB3==0 && PORTBbits.RB4==1){
   540  0078C6  A081               	btfss	3969,0,c	;volatile
   541  0078C8  B281               	btfsc	3969,1,c	;volatile
   542  0078CA  D005               	goto	l84
   543  0078CC  A481               	btfss	3969,2,c	;volatile
   544  0078CE  B681               	btfsc	3969,3,c	;volatile
   545  0078D0  D002               	goto	l84
   546  0078D2  B881               	btfsc	3969,4,c	;volatile
   547  0078D4  D7C5               	goto	u2410
   548  0078D6                     l84:
   549                           
   550                           ;main.c: 118: else if (PORTBbits.RB0==0 && PORTBbits.RB1==0 && PORTBbits.RB2==0 && PORTB
      +                          bits.RB3==1 && PORTBbits.RB4==1){
   551  0078D6  A081               	btfss	3969,0,c	;volatile
   552  0078D8  B281               	btfsc	3969,1,c	;volatile
   553  0078DA  D005               	goto	l86
   554  0078DC  A481               	btfss	3969,2,c	;volatile
   555  0078DE  A681               	btfss	3969,3,c	;volatile
   556  0078E0  D002               	goto	l86
   557  0078E2  B881               	btfsc	3969,4,c	;volatile
   558  0078E4  D7C9               	goto	u2460
   559  0078E6                     l86:
   560                           
   561                           ;main.c: 121: else if (PORTBbits.RB0==0 && PORTBbits.RB1==0 && PORTBbits.RB2==0 && PORTB
      +                          bits.RB3==1 && PORTBbits.RB4==0){
   562  0078E6  A081               	btfss	3969,0,c	;volatile
   563  0078E8  B281               	btfsc	3969,1,c	;volatile
   564  0078EA  D009               	goto	l88
   565  0078EC  A481               	btfss	3969,2,c	;volatile
   566  0078EE  A681               	btfss	3969,3,c	;volatile
   567  0078F0  D006               	goto	l88
   568  0078F2  B881               	btfsc	3969,4,c	;volatile
   569  0078F4  D004               	goto	l88
   570  0078F6                     L15:
   571                           
   572                           ;main.c: 122: error = 1;
   573  0078F6  0E00               	movlw	0
   574  0078F8  6E55               	movwf	_error+1,c
   575  0078FA  0E01               	movlw	1
   576  0078FC                     L9:
   577  0078FC  6E54               	movwf	_error,c
   578  0078FE                     l88:
   579                           
   580                           ;main.c: 123: }
   581                           ;main.c: 126: pid = getPID();
   582  0078FE  EC27  F03B         	call	_getPID	;wreg free
   583  007902  C02E  F03A         	movff	?_getPID,_pid
   584  007906  C02F  F03B         	movff	?_getPID+1,_pid+1
   585  00790A  C030  F03C         	movff	?_getPID+2,_pid+2
   586  00790E  C031  F03D         	movff	?_getPID+3,_pid+3
   587                           
   588                           ;main.c: 128: PORTC=0x03;
   589  007912  0E03               	movlw	3
   590  007914  6E82               	movwf	3970,c	;volatile
   591                           
   592                           ;main.c: 129: wait00(30);
   593  007916  0E00               	movlw	0
   594  007918  6E2E               	movwf	wait00@k,c
   595  00791A  0E00               	movlw	0
   596  00791C  6E2F               	movwf	wait00@k+1,c
   597  00791E  0EF0               	movlw	240
   598  007920  6E30               	movwf	wait00@k+2,c
   599  007922  0E41               	movlw	65
   600  007924  6E31               	movwf	wait00@k+3,c
   601  007926  EC6E  F039         	call	_wait00	;wreg free
   602                           
   603                           ;main.c: 130: PORTC=0x01;
   604  00792A  0E01               	movlw	1
   605  00792C  6E82               	movwf	3970,c	;volatile
   606                           
   607                           ;main.c: 131: wait00(0 + pid);
   608  00792E  C03A  F02E         	movff	_pid,wait00@k
   609  007932  C03B  F02F         	movff	_pid+1,wait00@k+1
   610  007936  C03C  F030         	movff	_pid+2,wait00@k+2
   611  00793A  C03D  F031         	movff	_pid+3,wait00@k+3
   612  00793E  EC6E  F039         	call	_wait00	;wreg free
   613                           
   614                           ;main.c: 132: PORTC=0x02;
   615  007942  0E02               	movlw	2
   616  007944  6E82               	movwf	3970,c	;volatile
   617                           
   618                           ;main.c: 133: wait00(0 );
   619  007946  0E00               	movlw	0
   620  007948  6E2E               	movwf	wait00@k,c
   621  00794A  0E00               	movlw	0
   622  00794C  6E2F               	movwf	wait00@k+1,c
   623  00794E  0E00               	movlw	0
   624  007950  6E30               	movwf	wait00@k+2,c
   625  007952  0E00               	movlw	0
   626  007954  6E31               	movwf	wait00@k+3,c
   627  007956  EC6E  F039         	call	_wait00	;wreg free
   628                           
   629                           ;main.c: 134: PORTC=0x00;
   630  00795A  0E00               	movlw	0
   631  00795C  6E82               	movwf	3970,c	;volatile
   632                           
   633                           ;main.c: 135: wait00(20);
   634  00795E  0E00               	movlw	0
   635  007960  6E2E               	movwf	wait00@k,c
   636  007962  0E00               	movlw	0
   637  007964  6E2F               	movwf	wait00@k+1,c
   638  007966  0EA0               	movlw	160
   639  007968  6E30               	movwf	wait00@k+2,c
   640  00796A  0E41               	movlw	65
   641  00796C  6E31               	movwf	wait00@k+3,c
   642  00796E  EC6E  F039         	call	_wait00	;wreg free
   643  007972  D748               	goto	u2210
   644  007974                     __end_of_main:
   645                           	opt stack 0
   646                           tblptru	equ	0xFF8
   647                           tblptrh	equ	0xFF7
   648                           tblptrl	equ	0xFF6
   649                           tablat	equ	0xFF5
   650                           postinc0	equ	0xFEE
   651                           wreg	equ	0xFE8
   652                           postdec1	equ	0xFE5
   653                           fsr1l	equ	0xFE1
   654                           
   655 ;; *************** function _wait00 *****************
   656 ;; Defined at:
   657 ;;		line 19 in file "main.c"
   658 ;; Parameters:    Size  Location     Type
   659 ;;  k               4   45[COMRAM] float 
   660 ;; Auto vars:     Size  Location     Type
   661 ;;  i               4   53[COMRAM] float 
   662 ;;  j               4   49[COMRAM] float 
   663 ;; Return value:  Size  Location     Type
   664 ;;                  2   45[COMRAM] int 
   665 ;; Registers used:
   666 ;;		wreg, status,2, status,0, cstack
   667 ;; Tracked objects:
   668 ;;		On entry : 0/0
   669 ;;		On exit  : 0/0
   670 ;;		Unchanged: 0/0
   671 ;; Data sizes:     COMRAM   BANK0   BANK1   BANK2   BANK3   BANK4   BANK5   BANK6   BANK7
   672 ;;      Params:         4       0       0       0       0       0       0       0       0
   673 ;;      Locals:         8       0       0       0       0       0       0       0       0
   674 ;;      Temps:          0       0       0       0       0       0       0       0       0
   675 ;;      Totals:        12       0       0       0       0       0       0       0       0
   676 ;;Total ram usage:       12 bytes
   677 ;; Hardware stack levels used:    1
   678 ;; Hardware stack levels required when called:    1
   679 ;; This function calls:
   680 ;;		___fladd
   681 ;;		___flge
   682 ;; This function is called by:
   683 ;;		_main
   684 ;; This function uses a non-reentrant model
   685 ;;
   686                           
   687                           	psect	text1
   688  0072DC                     __ptext1:
   689                           	opt stack 0
   690  0072DC                     _wait00:
   691                           	opt stack 29
   692                           
   693                           ;main.c: 22: float i;
   694                           ;main.c: 23: float j;
   695                           ;main.c: 24: for(j=0;j < k;j++){
   696                           
   697                           ;incstack = 0
   698  0072DC  0E00               	movlw	0
   699  0072DE  6E32               	movwf	wait00@j,c
   700  0072E0  0E00               	movlw	0
   701  0072E2  6E33               	movwf	wait00@j+1,c
   702  0072E4  0E00               	movlw	0
   703  0072E6  6E34               	movwf	wait00@j+2,c
   704  0072E8  0E00               	movlw	0
   705  0072EA  6E35               	movwf	wait00@j+3,c
   706  0072EC  D063               	goto	l39
   707  0072EE                     
   708                           ;main.c: 25: for(i=0;i<300;i++){
   709  0072EE  0E00               	movlw	0
   710  0072F0  6E36               	movwf	wait00@i,c
   711  0072F2  0E00               	movlw	0
   712  0072F4  6E37               	movwf	wait00@i+1,c
   713  0072F6  0E00               	movlw	0
   714  0072F8  6E38               	movwf	wait00@i+2,c
   715  0072FA  0E00               	movlw	0
   716  0072FC  6E39               	movwf	wait00@i+3,c
   717  0072FE  C036  F001         	movff	wait00@i,___flge@ff1
   718  007302  C037  F002         	movff	wait00@i+1,___flge@ff1+1
   719  007306  C038  F003         	movff	wait00@i+2,___flge@ff1+2
   720  00730A  C039  F004         	movff	wait00@i+3,___flge@ff1+3
   721  00730E  0E00               	movlw	0
   722  007310  6E05               	movwf	___flge@ff2,c
   723  007312  0E00               	movlw	0
   724  007314  6E06               	movwf	___flge@ff2+1,c
   725  007316  0E96               	movlw	150
   726  007318  6E07               	movwf	___flge@ff2+2,c
   727  00731A  0E43               	movlw	67
   728  00731C  6E08               	movwf	___flge@ff2+3,c
   729  00731E  ECEF  F039         	call	___flge	;wreg free
   730  007322  B0D8               	btfsc	status,0,c
   731  007324  D02D               	goto	u2180
   732  007326  C036  F01A         	movff	wait00@i,___fladd@b
   733  00732A  C037  F01B         	movff	wait00@i+1,___fladd@b+1
   734  00732E  C038  F01C         	movff	wait00@i+2,___fladd@b+2
   735  007332  C039  F01D         	movff	wait00@i+3,___fladd@b+3
   736  007336  0E00               	movlw	0
   737  007338  6E1E               	movwf	___fladd@a,c
   738  00733A  0E00               	movlw	0
   739  00733C  6E1F               	movwf	___fladd@a+1,c
   740  00733E  0E80               	movlw	128
   741  007340  6E20               	movwf	___fladd@a+2,c
   742  007342  0E3F               	movlw	63
   743  007344  6E21               	movwf	___fladd@a+3,c
   744  007346  ECBA  F03C         	call	___fladd	;wreg free
   745  00734A  C01A  F036         	movff	?___fladd,wait00@i
   746  00734E  C01B  F037         	movff	?___fladd+1,wait00@i+1
   747  007352  C01C  F038         	movff	?___fladd+2,wait00@i+2
   748  007356  C01D  F039         	movff	?___fladd+3,wait00@i+3
   749  00735A  C036  F001         	movff	wait00@i,___flge@ff1
   750  00735E  C037  F002         	movff	wait00@i+1,___flge@ff1+1
   751  007362  C038  F003         	movff	wait00@i+2,___flge@ff1+2
   752  007366  C039  F004         	movff	wait00@i+3,___flge@ff1+3
   753  00736A  0E00               	movlw	0
   754  00736C  6E05               	movwf	___flge@ff2,c
   755  00736E  0E00               	movlw	0
   756  007370  6E06               	movwf	___flge@ff2+1,c
   757  007372  0E96               	movlw	150
   758  007374  6E07               	movwf	___flge@ff2+2,c
   759  007376  0E43               	movlw	67
   760  007378  6E08               	movwf	___flge@ff2+3,c
   761  00737A  ECEF  F039         	call	___flge	;wreg free
   762  00737E  D7D1               	goto	L10
   763  007380                     u2180:
   764  007380  C032  F01A         	movff	wait00@j,___fladd@b
   765  007384  C033  F01B         	movff	wait00@j+1,___fladd@b+1
   766  007388  C034  F01C         	movff	wait00@j+2,___fladd@b+2
   767  00738C  C035  F01D         	movff	wait00@j+3,___fladd@b+3
   768  007390  0E00               	movlw	0
   769  007392  6E1E               	movwf	___fladd@a,c
   770  007394  0E00               	movlw	0
   771  007396  6E1F               	movwf	___fladd@a+1,c
   772  007398  0E80               	movlw	128
   773  00739A  6E20               	movwf	___fladd@a+2,c
   774  00739C  0E3F               	movlw	63
   775  00739E  6E21               	movwf	___fladd@a+3,c
   776  0073A0  ECBA  F03C         	call	___fladd	;wreg free
   777  0073A4  C01A  F032         	movff	?___fladd,wait00@j
   778  0073A8  C01B  F033         	movff	?___fladd+1,wait00@j+1
   779  0073AC  C01C  F034         	movff	?___fladd+2,wait00@j+2
   780  0073B0  C01D  F035         	movff	?___fladd+3,wait00@j+3
   781  0073B4                     l39:
   782  0073B4  C032  F001         	movff	wait00@j,___flge@ff1
   783  0073B8  C033  F002         	movff	wait00@j+1,___flge@ff1+1
   784  0073BC  C034  F003         	movff	wait00@j+2,___flge@ff1+2
   785  0073C0  C035  F004         	movff	wait00@j+3,___flge@ff1+3
   786  0073C4  C02E  F005         	movff	wait00@k,___flge@ff2
   787  0073C8  C02F  F006         	movff	wait00@k+1,___flge@ff2+1
   788  0073CC  C030  F007         	movff	wait00@k+2,___flge@ff2+2
   789  0073D0  C031  F008         	movff	wait00@k+3,___flge@ff2+3
   790  0073D4  ECEF  F039         	call	___flge	;wreg free
   791  0073D8  B0D8               	btfsc	status,0,c
   792  0073DA  0012               	return	
   793  0073DC  D788               	goto	l40
   794  0073DE                     __end_of_wait00:
   795                           	opt stack 0
   796                           tblptru	equ	0xFF8
   797                           tblptrh	equ	0xFF7
   798                           tblptrl	equ	0xFF6
   799                           tablat	equ	0xFF5
   800                           postinc0	equ	0xFEE
   801                           wreg	equ	0xFE8
   802                           postdec1	equ	0xFE5
   803                           fsr1l	equ	0xFE1
   804                           status	equ	0xFD8
   805                           
   806 ;; *************** function ___flge *****************
   807 ;; Defined at:
   808 ;;		line 4 in file "C:\Program Files (x86)\Microchip\xc8\v1.45\sources\common\flge.c"
   809 ;; Parameters:    Size  Location     Type
   810 ;;  ff1             4    0[COMRAM] int 
   811 ;;  ff2             4    4[COMRAM] int 
   812 ;; Auto vars:     Size  Location     Type
   813 ;;		None
   814 ;; Return value:  Size  Location     Type
   815 ;;		None               void
   816 ;; Registers used:
   817 ;;		wreg, status,2, status,0
   818 ;; Tracked objects:
   819 ;;		On entry : 0/0
   820 ;;		On exit  : 0/0
   821 ;;		Unchanged: 0/0
   822 ;; Data sizes:     COMRAM   BANK0   BANK1   BANK2   BANK3   BANK4   BANK5   BANK6   BANK7
   823 ;;      Params:         8       0       0       0       0       0       0       0       0
   824 ;;      Locals:         0       0       0       0       0       0       0       0       0
   825 ;;      Temps:          4       0       0       0       0       0       0       0       0
   826 ;;      Totals:        12       0       0       0       0       0       0       0       0
   827 ;;Total ram usage:       12 bytes
   828 ;; Hardware stack levels used:    1
   829 ;; This function calls:
   830 ;;		Nothing
   831 ;; This function is called by:
   832 ;;		_wait00
   833 ;;		_abs
   834 ;; This function uses a non-reentrant model
   835 ;;
   836                           
   837                           	psect	text2
   838  0073DE                     __ptext2:
   839                           	opt stack 0
   840  0073DE                     ___flge:
   841                           	opt stack 29
   842                           
   843                           ;incstack = 0
   844  0073DE  0E00               	movlw	0
   845  0073E0  1401               	andwf	___flge@ff1,w,c
   846  0073E2  6E09               	movwf	??___flge& (0+255),c
   847  0073E4  0E00               	movlw	0
   848  0073E6  1402               	andwf	___flge@ff1+1,w,c
   849  0073E8  6E0A               	movwf	(??___flge+1)& (0+255),c
   850  0073EA  0E80               	movlw	128
   851  0073EC  1403               	andwf	___flge@ff1+2,w,c
   852  0073EE  6E0B               	movwf	(??___flge+2)& (0+255),c
   853  0073F0  0E7F               	movlw	127
   854  0073F2  1404               	andwf	___flge@ff1+3,w,c
   855  0073F4  6E0C               	movwf	(??___flge+3)& (0+255),c
   856  0073F6  5009               	movf	??___flge,w,c
   857  0073F8  100A               	iorwf	??___flge+1,w,c
   858  0073FA  100B               	iorwf	??___flge+2,w,c
   859  0073FC  100C               	iorwf	??___flge+3,w,c
   860  0073FE  A4D8               	btfss	status,2,c
   861  007400  D008               	goto	l291
   862  007402  0E00               	movlw	0
   863  007404  6E01               	movwf	___flge@ff1,c
   864  007406  0E00               	movlw	0
   865  007408  6E02               	movwf	___flge@ff1+1,c
   866  00740A  0E00               	movlw	0
   867  00740C  6E03               	movwf	___flge@ff1+2,c
   868  00740E  0E00               	movlw	0
   869  007410  6E04               	movwf	___flge@ff1+3,c
   870  007412                     l291:
   871  007412  0E00               	movlw	0
   872  007414  1405               	andwf	___flge@ff2,w,c
   873  007416  6E09               	movwf	??___flge& (0+255),c
   874  007418  0E00               	movlw	0
   875  00741A  1406               	andwf	___flge@ff2+1,w,c
   876  00741C  6E0A               	movwf	(??___flge+1)& (0+255),c
   877  00741E  0E80               	movlw	128
   878  007420  1407               	andwf	___flge@ff2+2,w,c
   879  007422  6E0B               	movwf	(??___flge+2)& (0+255),c
   880  007424  0E7F               	movlw	127
   881  007426  1408               	andwf	___flge@ff2+3,w,c
   882  007428  6E0C               	movwf	(??___flge+3)& (0+255),c
   883  00742A  5009               	movf	??___flge,w,c
   884  00742C  100A               	iorwf	??___flge+1,w,c
   885  00742E  100B               	iorwf	??___flge+2,w,c
   886  007430  100C               	iorwf	??___flge+3,w,c
   887  007432  A4D8               	btfss	status,2,c
   888  007434  D008               	goto	l292
   889  007436  0E00               	movlw	0
   890  007438  6E05               	movwf	___flge@ff2,c
   891  00743A  0E00               	movlw	0
   892  00743C  6E06               	movwf	___flge@ff2+1,c
   893  00743E  0E00               	movlw	0
   894  007440  6E07               	movwf	___flge@ff2+2,c
   895  007442  0E00               	movlw	0
   896  007444  6E08               	movwf	___flge@ff2+3,c
   897  007446                     l292:
   898  007446  AE04               	btfss	___flge@ff1+3,7,c
   899  007448  D01D               	goto	l293
   900  00744A  C001  F009         	movff	___flge@ff1,??___flge
   901  00744E  C002  F00A         	movff	___flge@ff1+1,??___flge+1
   902  007452  C003  F00B         	movff	___flge@ff1+2,??___flge+2
   903  007456  C004  F00C         	movff	___flge@ff1+3,??___flge+3
   904  00745A  1E09               	comf	??___flge,f,c
   905  00745C  1E0A               	comf	??___flge+1,f,c
   906  00745E  1E0B               	comf	??___flge+2,f,c
   907  007460  1E0C               	comf	??___flge+3,f,c
   908  007462  2A09               	incf	??___flge,f,c
   909  007464  0E00               	movlw	0
   910  007466  220A               	addwfc	??___flge+1,f,c
   911  007468  220B               	addwfc	??___flge+2,f,c
   912  00746A  220C               	addwfc	??___flge+3,f,c
   913  00746C  0E00               	movlw	0
   914  00746E  2409               	addwf	??___flge,w,c
   915  007470  6E01               	movwf	___flge@ff1,c
   916  007472  0E00               	movlw	0
   917  007474  200A               	addwfc	??___flge+1,w,c
   918  007476  6E02               	movwf	___flge@ff1+1,c
   919  007478  0E00               	movlw	0
   920  00747A  200B               	addwfc	??___flge+2,w,c
   921  00747C  6E03               	movwf	___flge@ff1+2,c
   922  00747E  0E80               	movlw	128
   923  007480  200C               	addwfc	??___flge+3,w,c
   924  007482  6E04               	movwf	___flge@ff1+3,c
   925  007484                     l293:
   926  007484  AE08               	btfss	___flge@ff2+3,7,c
   927  007486  D01D               	goto	l294
   928  007488  C005  F009         	movff	___flge@ff2,??___flge
   929  00748C  C006  F00A         	movff	___flge@ff2+1,??___flge+1
   930  007490  C007  F00B         	movff	___flge@ff2+2,??___flge+2
   931  007494  C008  F00C         	movff	___flge@ff2+3,??___flge+3
   932  007498  1E09               	comf	??___flge,f,c
   933  00749A  1E0A               	comf	??___flge+1,f,c
   934  00749C  1E0B               	comf	??___flge+2,f,c
   935  00749E  1E0C               	comf	??___flge+3,f,c
   936  0074A0  2A09               	incf	??___flge,f,c
   937  0074A2  0E00               	movlw	0
   938  0074A4  220A               	addwfc	??___flge+1,f,c
   939  0074A6  220B               	addwfc	??___flge+2,f,c
   940  0074A8  220C               	addwfc	??___flge+3,f,c
   941  0074AA  0E00               	movlw	0
   942  0074AC  2409               	addwf	??___flge,w,c
   943  0074AE  6E05               	movwf	___flge@ff2,c
   944  0074B0  0E00               	movlw	0
   945  0074B2  200A               	addwfc	??___flge+1,w,c
   946  0074B4  6E06               	movwf	___flge@ff2+1,c
   947  0074B6  0E00               	movlw	0
   948  0074B8  200B               	addwfc	??___flge+2,w,c
   949  0074BA  6E07               	movwf	___flge@ff2+2,c
   950  0074BC  0E80               	movlw	128
   951  0074BE  200C               	addwfc	??___flge+3,w,c
   952  0074C0  6E08               	movwf	___flge@ff2+3,c
   953  0074C2                     l294:
   954  0074C2  0E00               	movlw	0
   955  0074C4  1A01               	xorwf	___flge@ff1,f,c
   956  0074C6  0E00               	movlw	0
   957  0074C8  1A02               	xorwf	___flge@ff1+1,f,c
   958  0074CA  0E00               	movlw	0
   959  0074CC  1A03               	xorwf	___flge@ff1+2,f,c
   960  0074CE  0E80               	movlw	128
   961  0074D0  1A04               	xorwf	___flge@ff1+3,f,c
   962  0074D2  0E00               	movlw	0
   963  0074D4  1A05               	xorwf	___flge@ff2,f,c
   964  0074D6  0E00               	movlw	0
   965  0074D8  1A06               	xorwf	___flge@ff2+1,f,c
   966  0074DA  0E00               	movlw	0
   967  0074DC  1A07               	xorwf	___flge@ff2+2,f,c
   968  0074DE  0E80               	movlw	128
   969  0074E0  1A08               	xorwf	___flge@ff2+3,f,c
   970  0074E2  5005               	movf	___flge@ff2,w,c
   971  0074E4  5C01               	subwf	___flge@ff1,w,c
   972  0074E6  5006               	movf	___flge@ff2+1,w,c
   973  0074E8  5802               	subwfb	___flge@ff1+1,w,c
   974  0074EA  5007               	movf	___flge@ff2+2,w,c
   975  0074EC  5803               	subwfb	___flge@ff1+2,w,c
   976  0074EE  5008               	movf	___flge@ff2+3,w,c
   977  0074F0  5804               	subwfb	___flge@ff1+3,w,c
   978  0074F2  B0D8               	btfsc	status,0,c
   979  0074F4  D002               	goto	l1301
   980  0074F6  90D8               	bcf	status,0,c
   981  0074F8  0012               	return	
   982  0074FA                     l1301:
   983  0074FA  80D8               	bsf	status,0,c
   984  0074FC  0012               	return	
   985  0074FE                     __end_of___flge:
   986                           	opt stack 0
   987                           tblptru	equ	0xFF8
   988                           tblptrh	equ	0xFF7
   989                           tblptrl	equ	0xFF6
   990                           tablat	equ	0xFF5
   991                           postinc0	equ	0xFEE
   992                           wreg	equ	0xFE8
   993                           postdec1	equ	0xFE5
   994                           fsr1l	equ	0xFE1
   995                           status	equ	0xFD8
   996                           
   997 ;; *************** function _led_sens *****************
   998 ;; Defined at:
   999 ;;		line 30 in file "main.c"
  1000 ;; Parameters:    Size  Location     Type
  1001 ;;		None
  1002 ;; Auto vars:     Size  Location     Type
  1003 ;;		None
  1004 ;; Return value:  Size  Location     Type
  1005 ;;                  2   46[None  ] int 
  1006 ;; Registers used:
  1007 ;;		None
  1008 ;; Tracked objects:
  1009 ;;		On entry : 0/0
  1010 ;;		On exit  : 0/0
  1011 ;;		Unchanged: 0/0
  1012 ;; Data sizes:     COMRAM   BANK0   BANK1   BANK2   BANK3   BANK4   BANK5   BANK6   BANK7
  1013 ;;      Params:         0       0       0       0       0       0       0       0       0
  1014 ;;      Locals:         0       0       0       0       0       0       0       0       0
  1015 ;;      Temps:          0       0       0       0       0       0       0       0       0
  1016 ;;      Totals:         0       0       0       0       0       0       0       0       0
  1017 ;;Total ram usage:        0 bytes
  1018 ;; Hardware stack levels used:    1
  1019 ;; This function calls:
  1020 ;;		Nothing
  1021 ;; This function is called by:
  1022 ;;		_main
  1023 ;; This function uses a non-reentrant model
  1024 ;;
  1025                           
  1026                           	psect	text3
  1027  0072A8                     __ptext3:
  1028                           	opt stack 0
  1029  0072A8                     _led_sens:
  1030                           	opt stack 30
  1031                           
  1032                           ;main.c: 32: PORTAbits.RA0 = PORTBbits.RB0;
  1033                           
  1034                           ;incstack = 0
  1035  0072A8  A081               	btfss	3969,0,c	;volatile
  1036  0072AA  D002               	bra	u775
  1037  0072AC  8080               	bsf	3968,0,c	;volatile
  1038  0072AE  D001               	bra	u777
  1039  0072B0                     u775:
  1040  0072B0  9080               	bcf	3968,0,c	;volatile
  1041  0072B2                     u777:
  1042                           
  1043                           ;main.c: 33: PORTAbits.RA1 = PORTBbits.RB1;
  1044  0072B2  A281               	btfss	3969,1,c	;volatile
  1045  0072B4  D002               	bra	u785
  1046  0072B6  8280               	bsf	3968,1,c	;volatile
  1047  0072B8  D001               	bra	u787
  1048  0072BA                     u785:
  1049  0072BA  9280               	bcf	3968,1,c	;volatile
  1050  0072BC                     u787:
  1051                           
  1052                           ;main.c: 34: PORTAbits.RA2 = PORTBbits.RB2;
  1053  0072BC  A481               	btfss	3969,2,c	;volatile
  1054  0072BE  D002               	bra	u795
  1055  0072C0  8480               	bsf	3968,2,c	;volatile
  1056  0072C2  D001               	bra	u797
  1057  0072C4                     u795:
  1058  0072C4  9480               	bcf	3968,2,c	;volatile
  1059  0072C6                     u797:
  1060                           
  1061                           ;main.c: 35: PORTAbits.RA3 = PORTBbits.RB3;
  1062  0072C6  A681               	btfss	3969,3,c	;volatile
  1063  0072C8  D002               	bra	u805
  1064  0072CA  8680               	bsf	3968,3,c	;volatile
  1065  0072CC  D001               	bra	u807
  1066  0072CE                     u805:
  1067  0072CE  9680               	bcf	3968,3,c	;volatile
  1068  0072D0                     u807:
  1069                           
  1070                           ;main.c: 36: PORTAbits.RA4 = PORTBbits.RB4;
  1071  0072D0  A881               	btfss	3969,4,c	;volatile
  1072  0072D2  D002               	bra	u815
  1073  0072D4  8880               	bsf	3968,4,c	;volatile
  1074  0072D6  D001               	bra	u817
  1075  0072D8                     u815:
  1076  0072D8  9880               	bcf	3968,4,c	;volatile
  1077  0072DA                     u817:
  1078  0072DA  0012               	return		;funcret
  1079  0072DC                     __end_of_led_sens:
  1080                           	opt stack 0
  1081                           tblptru	equ	0xFF8
  1082                           tblptrh	equ	0xFF7
  1083                           tblptrl	equ	0xFF6
  1084                           tablat	equ	0xFF5
  1085                           postinc0	equ	0xFEE
  1086                           wreg	equ	0xFE8
  1087                           postdec1	equ	0xFE5
  1088                           fsr1l	equ	0xFE1
  1089                           status	equ	0xFD8
  1090                           
  1091 ;; *************** function _getPID *****************
  1092 ;; Defined at:
  1093 ;;		line 45 in file "main.c"
  1094 ;; Parameters:    Size  Location     Type
  1095 ;;		None
  1096 ;; Auto vars:     Size  Location     Type
  1097 ;;		None
  1098 ;; Return value:  Size  Location     Type
  1099 ;;                  4   45[COMRAM] float 
  1100 ;; Registers used:
  1101 ;;		wreg, status,2, status,0, prodl, prodh, cstack
  1102 ;; Tracked objects:
  1103 ;;		On entry : 0/0
  1104 ;;		On exit  : 0/0
  1105 ;;		Unchanged: 0/0
  1106 ;; Data sizes:     COMRAM   BANK0   BANK1   BANK2   BANK3   BANK4   BANK5   BANK6   BANK7
  1107 ;;      Params:         4       0       0       0       0       0       0       0       0
  1108 ;;      Locals:         4       0       0       0       0       0       0       0       0
  1109 ;;      Temps:          2       0       0       0       0       0       0       0       0
  1110 ;;      Totals:        10       0       0       0       0       0       0       0       0
  1111 ;;Total ram usage:       10 bytes
  1112 ;; Hardware stack levels used:    1
  1113 ;; Hardware stack levels required when called:    1
  1114 ;; This function calls:
  1115 ;;		___fladd
  1116 ;;		___flmul
  1117 ;;		___xxtofl
  1118 ;; This function is called by:
  1119 ;;		_main
  1120 ;; This function uses a non-reentrant model
  1121 ;;
  1122                           
  1123                           	psect	text4
  1124  00764E                     __ptext4:
  1125                           	opt stack 0
  1126  00764E                     _getPID:
  1127                           	opt stack 29
  1128                           
  1129                           ;main.c: 46: P = error;
  1130                           
  1131                           ;incstack = 0
  1132  00764E  C054  F001         	movff	_error,___xxtofl@val
  1133  007652  C055  F002         	movff	_error+1,___xxtofl@val+1
  1134  007656  0E00               	movlw	0
  1135  007658  BE02               	btfsc	___xxtofl@val+1,7,c
  1136  00765A  0EFF               	movlw	-1
  1137  00765C  6E03               	movwf	___xxtofl@val+2,c
  1138  00765E  6E04               	movwf	___xxtofl@val+3,c
  1139  007660  0E01               	movlw	1
  1140  007662  EC7F  F03A         	call	___xxtofl
  1141  007666  C001  F046         	movff	?___xxtofl,_P
  1142  00766A  C002  F047         	movff	?___xxtofl+1,_P+1
  1143  00766E  C003  F048         	movff	?___xxtofl+2,_P+2
  1144  007672  C004  F049         	movff	?___xxtofl+3,_P+3
  1145                           
  1146                           ;main.c: 47: I = I + error;
  1147  007676  C054  F001         	movff	_error,___xxtofl@val
  1148  00767A  C055  F002         	movff	_error+1,___xxtofl@val+1
  1149  00767E  0E00               	movlw	0
  1150  007680  BE02               	btfsc	___xxtofl@val+1,7,c
  1151  007682  0EFF               	movlw	-1
  1152  007684  6E03               	movwf	___xxtofl@val+2,c
  1153  007686  6E04               	movwf	___xxtofl@val+3,c
  1154  007688  0E01               	movlw	1
  1155  00768A  EC7F  F03A         	call	___xxtofl
  1156  00768E  C001  F01A         	movff	?___xxtofl,___fladd@b
  1157  007692  C002  F01B         	movff	?___xxtofl+1,___fladd@b+1
  1158  007696  C003  F01C         	movff	?___xxtofl+2,___fladd@b+2
  1159  00769A  C004  F01D         	movff	?___xxtofl+3,___fladd@b+3
  1160  00769E  C042  F01E         	movff	_I,___fladd@a
  1161  0076A2  C043  F01F         	movff	_I+1,___fladd@a+1
  1162  0076A6  C044  F020         	movff	_I+2,___fladd@a+2
  1163  0076AA  C045  F021         	movff	_I+3,___fladd@a+3
  1164  0076AE  ECBA  F03C         	call	___fladd	;wreg free
  1165  0076B2  C01A  F042         	movff	?___fladd,_I
  1166  0076B6  C01B  F043         	movff	?___fladd+1,_I+1
  1167  0076BA  C01C  F044         	movff	?___fladd+2,_I+2
  1168  0076BE  C01D  F045         	movff	?___fladd+3,_I+3
  1169                           
  1170                           ;main.c: 48: D = error - previous_error;
  1171  0076C2  C052  F032         	movff	_previous_error,??_getPID
  1172  0076C6  C053  F033         	movff	_previous_error+1,??_getPID+1
  1173  0076CA  1E32               	comf	??_getPID,f,c
  1174  0076CC  1E33               	comf	??_getPID+1,f,c
  1175  0076CE  4A32               	infsnz	??_getPID,f,c
  1176  0076D0  2A33               	incf	??_getPID+1,f,c
  1177  0076D2  5054               	movf	_error,w,c
  1178  0076D4  2632               	addwf	??_getPID,f,c
  1179  0076D6  5055               	movf	_error+1,w,c
  1180  0076D8  2233               	addwfc	??_getPID+1,f,c
  1181  0076DA  C032  F001         	movff	??_getPID,___xxtofl@val
  1182  0076DE  C033  F002         	movff	??_getPID+1,___xxtofl@val+1
  1183  0076E2  0E00               	movlw	0
  1184  0076E4  BE02               	btfsc	___xxtofl@val+1,7,c
  1185  0076E6  0EFF               	movlw	-1
  1186  0076E8  6E03               	movwf	___xxtofl@val+2,c
  1187  0076EA  6E04               	movwf	___xxtofl@val+3,c
  1188  0076EC  0E01               	movlw	1
  1189  0076EE  EC7F  F03A         	call	___xxtofl
  1190  0076F2  C001  F03E         	movff	?___xxtofl,_D
  1191  0076F6  C002  F03F         	movff	?___xxtofl+1,_D+1
  1192  0076FA  C003  F040         	movff	?___xxtofl+2,_D+2
  1193  0076FE  C004  F041         	movff	?___xxtofl+3,_D+3
  1194                           
  1195                           ;main.c: 49: previous_error = error;
  1196  007702  C054  F052         	movff	_error,_previous_error
  1197  007706  C055  F053         	movff	_error+1,_previous_error+1
  1198                           
  1199                           ;main.c: 51: return ((kp*P) + (ki*I) + (kd*D));
  1200  00770A  C042  F005         	movff	_I,___flmul@a
  1201  00770E  C043  F006         	movff	_I+1,___flmul@a+1
  1202  007712  C044  F007         	movff	_I+2,___flmul@a+2
  1203  007716  C045  F008         	movff	_I+3,___flmul@a+3
  1204  00771A  C04E  F001         	movff	_ki,___flmul@b
  1205  00771E  C04F  F002         	movff	_ki+1,___flmul@b+1
  1206  007722  C050  F003         	movff	_ki+2,___flmul@b+2
  1207  007726  C051  F004         	movff	_ki+3,___flmul@b+3
  1208  00772A  EC58  F03E         	call	___flmul	;wreg free
  1209  00772E  C001  F01E         	movff	?___flmul,___fladd@a
  1210  007732  C002  F01F         	movff	?___flmul+1,___fladd@a+1
  1211  007736  C003  F020         	movff	?___flmul+2,___fladd@a+2
  1212  00773A  C004  F021         	movff	?___flmul+3,___fladd@a+3
  1213  00773E  C046  F005         	movff	_P,___flmul@a
  1214  007742  C047  F006         	movff	_P+1,___flmul@a+1
  1215  007746  C048  F007         	movff	_P+2,___flmul@a+2
  1216  00774A  C049  F008         	movff	_P+3,___flmul@a+3
  1217  00774E  C056  F001         	movff	_kp,___flmul@b
  1218  007752  C057  F002         	movff	_kp+1,___flmul@b+1
  1219  007756  C058  F003         	movff	_kp+2,___flmul@b+2
  1220  00775A  C059  F004         	movff	_kp+3,___flmul@b+3
  1221  00775E  EC58  F03E         	call	___flmul	;wreg free
  1222  007762  C001  F01A         	movff	?___flmul,___fladd@b
  1223  007766  C002  F01B         	movff	?___flmul+1,___fladd@b+1
  1224  00776A  C003  F01C         	movff	?___flmul+2,___fladd@b+2
  1225  00776E  C004  F01D         	movff	?___flmul+3,___fladd@b+3
  1226  007772  ECBA  F03C         	call	___fladd	;wreg free
  1227  007776  C01A  F034         	movff	?___fladd,_getPID$714
  1228  00777A  C01B  F035         	movff	?___fladd+1,_getPID$714+1
  1229  00777E  C01C  F036         	movff	?___fladd+2,_getPID$714+2
  1230  007782  C01D  F037         	movff	?___fladd+3,_getPID$714+3
  1231                           
  1232                           ;main.c: 51: return ((kp*P) + (ki*I) + (kd*D));
  1233  007786  C034  F01A         	movff	_getPID$714,___fladd@b
  1234  00778A  C035  F01B         	movff	_getPID$714+1,___fladd@b+1
  1235  00778E  C036  F01C         	movff	_getPID$714+2,___fladd@b+2
  1236  007792  C037  F01D         	movff	_getPID$714+3,___fladd@b+3
  1237  007796  C03E  F005         	movff	_D,___flmul@a
  1238  00779A  C03F  F006         	movff	_D+1,___flmul@a+1
  1239  00779E  C040  F007         	movff	_D+2,___flmul@a+2
  1240  0077A2  C041  F008         	movff	_D+3,___flmul@a+3
  1241  0077A6  C04A  F001         	movff	_kd,___flmul@b
  1242  0077AA  C04B  F002         	movff	_kd+1,___flmul@b+1
  1243  0077AE  C04C  F003         	movff	_kd+2,___flmul@b+2
  1244  0077B2  C04D  F004         	movff	_kd+3,___flmul@b+3
  1245  0077B6  EC58  F03E         	call	___flmul	;wreg free
  1246  0077BA  C001  F01E         	movff	?___flmul,___fladd@a
  1247  0077BE  C002  F01F         	movff	?___flmul+1,___fladd@a+1
  1248  0077C2  C003  F020         	movff	?___flmul+2,___fladd@a+2
  1249  0077C6  C004  F021         	movff	?___flmul+3,___fladd@a+3
  1250  0077CA  ECBA  F03C         	call	___fladd	;wreg free
  1251  0077CE  C01A  F02E         	movff	?___fladd,?_getPID
  1252  0077D2  C01B  F02F         	movff	?___fladd+1,?_getPID+1
  1253  0077D6  C01C  F030         	movff	?___fladd+2,?_getPID+2
  1254  0077DA  C01D  F031         	movff	?___fladd+3,?_getPID+3
  1255  0077DE  0012               	return	
  1256  0077E0                     __end_of_getPID:
  1257                           	opt stack 0
  1258                           tblptru	equ	0xFF8
  1259                           tblptrh	equ	0xFF7
  1260                           tblptrl	equ	0xFF6
  1261                           tablat	equ	0xFF5
  1262                           postinc0	equ	0xFEE
  1263                           wreg	equ	0xFE8
  1264                           postdec1	equ	0xFE5
  1265                           fsr1l	equ	0xFE1
  1266                           status	equ	0xFD8
  1267                           
  1268 ;; *************** function ___xxtofl *****************
  1269 ;; Defined at:
  1270 ;;		line 10 in file "C:\Program Files (x86)\Microchip\xc8\v1.45\sources\common\xxtofl.c"
  1271 ;; Parameters:    Size  Location     Type
  1272 ;;  sign            1    wreg     unsigned char 
  1273 ;;  val             4    0[COMRAM] long 
  1274 ;; Auto vars:     Size  Location     Type
  1275 ;;  sign            1    8[COMRAM] unsigned char 
  1276 ;;  arg             4   10[COMRAM] unsigned long 
  1277 ;;  exp             1    9[COMRAM] unsigned char 
  1278 ;; Return value:  Size  Location     Type
  1279 ;;                  4    0[COMRAM] unsigned char 
  1280 ;; Registers used:
  1281 ;;		wreg, status,2, status,0
  1282 ;; Tracked objects:
  1283 ;;		On entry : 0/0
  1284 ;;		On exit  : 0/0
  1285 ;;		Unchanged: 0/0
  1286 ;; Data sizes:     COMRAM   BANK0   BANK1   BANK2   BANK3   BANK4   BANK5   BANK6   BANK7
  1287 ;;      Params:         4       0       0       0       0       0       0       0       0
  1288 ;;      Locals:         6       0       0       0       0       0       0       0       0
  1289 ;;      Temps:          4       0       0       0       0       0       0       0       0
  1290 ;;      Totals:        14       0       0       0       0       0       0       0       0
  1291 ;;Total ram usage:       14 bytes
  1292 ;; Hardware stack levels used:    1
  1293 ;; This function calls:
  1294 ;;		Nothing
  1295 ;; This function is called by:
  1296 ;;		_getPID
  1297 ;; This function uses a non-reentrant model
  1298 ;;
  1299                           
  1300                           	psect	text5
  1301  0074FE                     __ptext5:
  1302                           	opt stack 0
  1303  0074FE                     ___xxtofl:
  1304                           	opt stack 29
  1305                           
  1306                           ;incstack = 0
  1307                           ;___xxtofl@sign stored from wreg
  1308  0074FE  6E09               	movwf	___xxtofl@sign,c
  1309  007500  5009               	movf	___xxtofl@sign,w,c
  1310  007502  A4D8               	btfss	status,2,c
  1311  007504  AE04               	btfss	___xxtofl@val+3,7,c
  1312  007506  D01A               	goto	l639
  1313  007508  C001  F005         	movff	___xxtofl@val,??___xxtofl
  1314  00750C  C002  F006         	movff	___xxtofl@val+1,??___xxtofl+1
  1315  007510  C003  F007         	movff	___xxtofl@val+2,??___xxtofl+2
  1316  007514  C004  F008         	movff	___xxtofl@val+3,??___xxtofl+3
  1317  007518  1E05               	comf	??___xxtofl,f,c
  1318  00751A  1E06               	comf	??___xxtofl+1,f,c
  1319  00751C  1E07               	comf	??___xxtofl+2,f,c
  1320  00751E  1E08               	comf	??___xxtofl+3,f,c
  1321  007520  2A05               	incf	??___xxtofl,f,c
  1322  007522  0E00               	movlw	0
  1323  007524  2206               	addwfc	??___xxtofl+1,f,c
  1324  007526  2207               	addwfc	??___xxtofl+2,f,c
  1325  007528  2208               	addwfc	??___xxtofl+3,f,c
  1326  00752A  C005  F00B         	movff	??___xxtofl,___xxtofl@arg
  1327  00752E  C006  F00C         	movff	??___xxtofl+1,___xxtofl@arg+1
  1328  007532  C007  F00D         	movff	??___xxtofl+2,___xxtofl@arg+2
  1329  007536  C008  F00E         	movff	??___xxtofl+3,___xxtofl@arg+3
  1330  00753A  D008               	goto	l640
  1331  00753C                     l639:
  1332  00753C  C001  F00B         	movff	___xxtofl@val,___xxtofl@arg
  1333  007540  C002  F00C         	movff	___xxtofl@val+1,___xxtofl@arg+1
  1334  007544  C003  F00D         	movff	___xxtofl@val+2,___xxtofl@arg+2
  1335  007548  C004  F00E         	movff	___xxtofl@val+3,___xxtofl@arg+3
  1336  00754C                     l640:
  1337  00754C  5001               	movf	___xxtofl@val,w,c
  1338  00754E  1002               	iorwf	___xxtofl@val+1,w,c
  1339  007550  1003               	iorwf	___xxtofl@val+2,w,c
  1340  007552  1004               	iorwf	___xxtofl@val+3,w,c
  1341  007554  A4D8               	btfss	status,2,c
  1342  007556  D009               	goto	l641
  1343  007558  0E00               	movlw	0
  1344  00755A  6E01               	movwf	?___xxtofl,c
  1345  00755C  0E00               	movlw	0
  1346  00755E  6E02               	movwf	?___xxtofl+1,c
  1347  007560  0E00               	movlw	0
  1348  007562  6E03               	movwf	?___xxtofl+2,c
  1349  007564  0E00               	movlw	0
  1350  007566  6E04               	movwf	?___xxtofl+3,c
  1351  007568  0012               	return	
  1352  00756A                     l641:
  1353  00756A  0E96               	movlw	150
  1354  00756C  6E0A               	movwf	___xxtofl@exp,c
  1355  00756E  D006               	goto	l643
  1356  007570  2A0A               	incf	___xxtofl@exp,f,c
  1357  007572  90D8               	bcf	status,0,c
  1358  007574  320E               	rrcf	___xxtofl@arg+3,f,c
  1359  007576  320D               	rrcf	___xxtofl@arg+2,f,c
  1360  007578  320C               	rrcf	___xxtofl@arg+1,f,c
  1361  00757A  320B               	rrcf	___xxtofl@arg,f,c
  1362  00757C                     l643:
  1363  00757C  0E00               	movlw	0
  1364  00757E  140B               	andwf	___xxtofl@arg,w,c
  1365  007580  6E05               	movwf	??___xxtofl& (0+255),c
  1366  007582  0E00               	movlw	0
  1367  007584  140C               	andwf	___xxtofl@arg+1,w,c
  1368  007586  6E06               	movwf	(??___xxtofl+1)& (0+255),c
  1369  007588  0E00               	movlw	0
  1370  00758A  140D               	andwf	___xxtofl@arg+2,w,c
  1371  00758C  6E07               	movwf	(??___xxtofl+2)& (0+255),c
  1372  00758E  0EFE               	movlw	254
  1373  007590  140E               	andwf	___xxtofl@arg+3,w,c
  1374  007592  6E08               	movwf	(??___xxtofl+3)& (0+255),c
  1375  007594  5005               	movf	??___xxtofl,w,c
  1376  007596  1006               	iorwf	??___xxtofl+1,w,c
  1377  007598  1007               	iorwf	??___xxtofl+2,w,c
  1378  00759A  1008               	iorwf	??___xxtofl+3,w,c
  1379  00759C  B4D8               	btfsc	status,2,c
  1380  00759E  D00D               	goto	l646
  1381  0075A0  D7E7               	goto	l644
  1382  0075A2  2A0A               	incf	___xxtofl@exp,f,c
  1383  0075A4  0E01               	movlw	1
  1384  0075A6  260B               	addwf	___xxtofl@arg,f,c
  1385  0075A8  0E00               	movlw	0
  1386  0075AA  220C               	addwfc	___xxtofl@arg+1,f,c
  1387  0075AC  220D               	addwfc	___xxtofl@arg+2,f,c
  1388  0075AE  220E               	addwfc	___xxtofl@arg+3,f,c
  1389  0075B0  90D8               	bcf	status,0,c
  1390  0075B2  320E               	rrcf	___xxtofl@arg+3,f,c
  1391  0075B4  320D               	rrcf	___xxtofl@arg+2,f,c
  1392  0075B6  320C               	rrcf	___xxtofl@arg+1,f,c
  1393  0075B8  320B               	rrcf	___xxtofl@arg,f,c
  1394  0075BA                     l646:
  1395  0075BA  0E00               	movlw	0
  1396  0075BC  140B               	andwf	___xxtofl@arg,w,c
  1397  0075BE  6E05               	movwf	??___xxtofl& (0+255),c
  1398  0075C0  0E00               	movlw	0
  1399  0075C2  140C               	andwf	___xxtofl@arg+1,w,c
  1400  0075C4  6E06               	movwf	(??___xxtofl+1)& (0+255),c
  1401  0075C6  0E00               	movlw	0
  1402  0075C8  140D               	andwf	___xxtofl@arg+2,w,c
  1403  0075CA  6E07               	movwf	(??___xxtofl+2)& (0+255),c
  1404  0075CC  0EFF               	movlw	255
  1405  0075CE  140E               	andwf	___xxtofl@arg+3,w,c
  1406  0075D0  6E08               	movwf	(??___xxtofl+3)& (0+255),c
  1407  0075D2  5005               	movf	??___xxtofl,w,c
  1408  0075D4  1006               	iorwf	??___xxtofl+1,w,c
  1409  0075D6  1007               	iorwf	??___xxtofl+2,w,c
  1410  0075D8  1008               	iorwf	??___xxtofl+3,w,c
  1411  0075DA  B4D8               	btfsc	status,2,c
  1412  0075DC  D007               	goto	l649
  1413  0075DE  D7E1               	goto	l647
  1414  0075E0  060A               	decf	___xxtofl@exp,f,c
  1415  0075E2  90D8               	bcf	status,0,c
  1416  0075E4  360B               	rlcf	___xxtofl@arg,f,c
  1417  0075E6  360C               	rlcf	___xxtofl@arg+1,f,c
  1418  0075E8  360D               	rlcf	___xxtofl@arg+2,f,c
  1419  0075EA  360E               	rlcf	___xxtofl@arg+3,f,c
  1420  0075EC                     l649:
  1421  0075EC  BE0D               	btfsc	___xxtofl@arg+2,7,c
  1422  0075EE  D003               	goto	u2130
  1423  0075F0  0E02               	movlw	2
  1424  0075F2  600A               	cpfslt	___xxtofl@exp,c
  1425  0075F4  D7F5               	goto	l650
  1426  0075F6                     u2130:
  1427  0075F6  B00A               	btfsc	___xxtofl@exp,0,c
  1428  0075F8  D008               	goto	l654
  1429  0075FA  0EFF               	movlw	255
  1430  0075FC  160B               	andwf	___xxtofl@arg,f,c
  1431  0075FE  0EFF               	movlw	255
  1432  007600  160C               	andwf	___xxtofl@arg+1,f,c
  1433  007602  0E7F               	movlw	127
  1434  007604  160D               	andwf	___xxtofl@arg+2,f,c
  1435  007606  0EFF               	movlw	255
  1436  007608  160E               	andwf	___xxtofl@arg+3,f,c
  1437  00760A                     l654:
  1438  00760A  90D8               	bcf	status,0,c
  1439  00760C  320A               	rrcf	___xxtofl@exp,f,c
  1440  00760E  C00A  F005         	movff	___xxtofl@exp,??___xxtofl
  1441  007612  6A06               	clrf	(??___xxtofl+1)& (0+255),c
  1442  007614  6A07               	clrf	(??___xxtofl+2)& (0+255),c
  1443  007616  6A08               	clrf	(??___xxtofl+3)& (0+255),c
  1444  007618  C005  F008         	movff	??___xxtofl,??___xxtofl+3
  1445  00761C  6A07               	clrf	??___xxtofl+2,c
  1446  00761E  6A06               	clrf	??___xxtofl+1,c
  1447  007620  6A05               	clrf	??___xxtofl,c
  1448  007622  5005               	movf	??___xxtofl,w,c
  1449  007624  120B               	iorwf	___xxtofl@arg,f,c
  1450  007626  5006               	movf	??___xxtofl+1,w,c
  1451  007628  120C               	iorwf	___xxtofl@arg+1,f,c
  1452  00762A  5007               	movf	??___xxtofl+2,w,c
  1453  00762C  120D               	iorwf	___xxtofl@arg+2,f,c
  1454  00762E  5008               	movf	??___xxtofl+3,w,c
  1455  007630  120E               	iorwf	___xxtofl@arg+3,f,c
  1456  007632  5009               	movf	___xxtofl@sign,w,c
  1457  007634  A4D8               	btfss	status,2,c
  1458  007636  AE04               	btfss	___xxtofl@val+3,7,c
  1459  007638  D001               	goto	l655
  1460  00763A  8E0E               	bsf	___xxtofl@arg+3,7,c
  1461  00763C                     l655:
  1462  00763C  C00B  F001         	movff	___xxtofl@arg,?___xxtofl
  1463  007640  C00C  F002         	movff	___xxtofl@arg+1,?___xxtofl+1
  1464  007644  C00D  F003         	movff	___xxtofl@arg+2,?___xxtofl+2
  1465  007648  C00E  F004         	movff	___xxtofl@arg+3,?___xxtofl+3
  1466  00764C  0012               	return	
  1467  00764E                     __end_of___xxtofl:
  1468                           	opt stack 0
  1469                           tblptru	equ	0xFF8
  1470                           tblptrh	equ	0xFF7
  1471                           tblptrl	equ	0xFF6
  1472                           tablat	equ	0xFF5
  1473                           postinc0	equ	0xFEE
  1474                           wreg	equ	0xFE8
  1475                           postdec1	equ	0xFE5
  1476                           fsr1l	equ	0xFE1
  1477                           status	equ	0xFD8
  1478                           
  1479 ;; *************** function ___flmul *****************
  1480 ;; Defined at:
  1481 ;;		line 8 in file "C:\Program Files (x86)\Microchip\xc8\v1.45\sources\common\sprcmul.c"
  1482 ;; Parameters:    Size  Location     Type
  1483 ;;  b               4    0[COMRAM] unsigned char 
  1484 ;;  a               4    4[COMRAM] unsigned char 
  1485 ;; Auto vars:     Size  Location     Type
  1486 ;;  prod            4   19[COMRAM] struct .
  1487 ;;  grs             4   13[COMRAM] unsigned long 
  1488 ;;  temp            2   23[COMRAM] struct .
  1489 ;;  bexp            1   18[COMRAM] unsigned char 
  1490 ;;  aexp            1   17[COMRAM] unsigned char 
  1491 ;;  sign            1   12[COMRAM] unsigned char 
  1492 ;; Return value:  Size  Location     Type
  1493 ;;                  4    0[COMRAM] unsigned char 
  1494 ;; Registers used:
  1495 ;;		wreg, status,2, status,0, prodl, prodh
  1496 ;; Tracked objects:
  1497 ;;		On entry : 0/0
  1498 ;;		On exit  : 0/0
  1499 ;;		Unchanged: 0/0
  1500 ;; Data sizes:     COMRAM   BANK0   BANK1   BANK2   BANK3   BANK4   BANK5   BANK6   BANK7
  1501 ;;      Params:         8       0       0       0       0       0       0       0       0
  1502 ;;      Locals:        13       0       0       0       0       0       0       0       0
  1503 ;;      Temps:          4       0       0       0       0       0       0       0       0
  1504 ;;      Totals:        25       0       0       0       0       0       0       0       0
  1505 ;;Total ram usage:       25 bytes
  1506 ;; Hardware stack levels used:    1
  1507 ;; This function calls:
  1508 ;;		Nothing
  1509 ;; This function is called by:
  1510 ;;		_getPID
  1511 ;; This function uses a non-reentrant model
  1512 ;;
  1513                           
  1514                           	psect	text6
  1515  007CB0                     __ptext6:
  1516                           	opt stack 0
  1517  007CB0                     ___flmul:
  1518                           	opt stack 29
  1519                           
  1520                           ;incstack = 0
  1521  007CB0  5004               	movf	___flmul@b+3,w,c
  1522  007CB2  0B80               	andlw	128
  1523  007CB4  6E0D               	movwf	___flmul@sign,c
  1524  007CB6  5004               	movf	___flmul@b+3,w,c
  1525  007CB8  2404               	addwf	___flmul@b+3,w,c
  1526  007CBA  6E13               	movwf	___flmul@bexp,c
  1527  007CBC  BE03               	btfsc	___flmul@b+2,7,c
  1528  007CBE  8013               	bsf	___flmul@bexp,0,c
  1529  007CC0  5013               	movf	___flmul@bexp,w,c
  1530  007CC2  B4D8               	btfsc	status,2,c
  1531  007CC4  D00D               	goto	l611
  1532  007CC6  2813               	incf	___flmul@bexp,w,c
  1533  007CC8  A4D8               	btfss	status,2,c
  1534  007CCA  D008               	goto	l612
  1535  007CCC  0E00               	movlw	0
  1536  007CCE  6E01               	movwf	___flmul@b,c
  1537  007CD0  0E00               	movlw	0
  1538  007CD2  6E02               	movwf	___flmul@b+1,c
  1539  007CD4  0E00               	movlw	0
  1540  007CD6  6E03               	movwf	___flmul@b+2,c
  1541  007CD8  0E00               	movlw	0
  1542  007CDA  6E04               	movwf	___flmul@b+3,c
  1543  007CDC                     l612:
  1544  007CDC  8E03               	bsf	___flmul@b+2,7,c
  1545  007CDE  D008               	goto	l613
  1546  007CE0                     l611:
  1547  007CE0  0E00               	movlw	0
  1548  007CE2  6E01               	movwf	___flmul@b,c
  1549  007CE4  0E00               	movlw	0
  1550  007CE6  6E02               	movwf	___flmul@b+1,c
  1551  007CE8  0E00               	movlw	0
  1552  007CEA  6E03               	movwf	___flmul@b+2,c
  1553  007CEC  0E00               	movlw	0
  1554  007CEE  6E04               	movwf	___flmul@b+3,c
  1555  007CF0                     l613:
  1556  007CF0  5008               	movf	___flmul@a+3,w,c
  1557  007CF2  0B80               	andlw	128
  1558  007CF4  1A0D               	xorwf	___flmul@sign,f,c
  1559  007CF6  5008               	movf	___flmul@a+3,w,c
  1560  007CF8  2408               	addwf	___flmul@a+3,w,c
  1561  007CFA  6E12               	movwf	___flmul@aexp,c
  1562  007CFC  BE07               	btfsc	___flmul@a+2,7,c
  1563  007CFE  8012               	bsf	___flmul@aexp,0,c
  1564  007D00  5012               	movf	___flmul@aexp,w,c
  1565  007D02  B4D8               	btfsc	status,2,c
  1566  007D04  D00D               	goto	l615
  1567  007D06  2812               	incf	___flmul@aexp,w,c
  1568  007D08  A4D8               	btfss	status,2,c
  1569  007D0A  D008               	goto	l616
  1570  007D0C  0E00               	movlw	0
  1571  007D0E  6E05               	movwf	___flmul@a,c
  1572  007D10  0E00               	movlw	0
  1573  007D12  6E06               	movwf	___flmul@a+1,c
  1574  007D14  0E00               	movlw	0
  1575  007D16  6E07               	movwf	___flmul@a+2,c
  1576  007D18  0E00               	movlw	0
  1577  007D1A  6E08               	movwf	___flmul@a+3,c
  1578  007D1C                     l616:
  1579  007D1C  8E07               	bsf	___flmul@a+2,7,c
  1580  007D1E  D008               	goto	l617
  1581  007D20                     l615:
  1582  007D20  0E00               	movlw	0
  1583  007D22  6E05               	movwf	___flmul@a,c
  1584  007D24  0E00               	movlw	0
  1585  007D26  6E06               	movwf	___flmul@a+1,c
  1586  007D28  0E00               	movlw	0
  1587  007D2A  6E07               	movwf	___flmul@a+2,c
  1588  007D2C  0E00               	movlw	0
  1589  007D2E  6E08               	movwf	___flmul@a+3,c
  1590  007D30                     l617:
  1591  007D30  5012               	movf	___flmul@aexp,w,c
  1592  007D32  B4D8               	btfsc	status,2,c
  1593  007D34  D003               	goto	u1900
  1594  007D36  5013               	movf	___flmul@bexp,w,c
  1595  007D38  A4D8               	btfss	status,2,c
  1596  007D3A  D009               	goto	l618
  1597  007D3C                     u1900:
  1598  007D3C  0E00               	movlw	0
  1599  007D3E  6E01               	movwf	?___flmul,c
  1600  007D40  0E00               	movlw	0
  1601  007D42  6E02               	movwf	?___flmul+1,c
  1602  007D44  0E00               	movlw	0
  1603  007D46  6E03               	movwf	?___flmul+2,c
  1604  007D48  0E00               	movlw	0
  1605  007D4A  6E04               	movwf	?___flmul+3,c
  1606  007D4C  0012               	return	
  1607  007D4E                     l618:
  1608  007D4E  5007               	movf	___flmul@a+2,w,c
  1609  007D50  0201               	mulwf	___flmul@b,c
  1610  007D52  CFF3 F018          	movff	prodl,___flmul@temp
  1611  007D56  CFF4 F019          	movff	prodh,___flmul@temp+1
  1612  007D5A  5018               	movf	___flmul@temp,w,c
  1613  007D5C  6E0E               	movwf	___flmul@grs,c
  1614  007D5E  6A0F               	clrf	___flmul@grs+1,c
  1615  007D60  6A10               	clrf	___flmul@grs+2,c
  1616  007D62  6A11               	clrf	___flmul@grs+3,c
  1617  007D64  5019               	movf	___flmul@temp+1,w,c
  1618  007D66  6E14               	movwf	___flmul@prod,c
  1619  007D68  6A15               	clrf	___flmul@prod+1,c
  1620  007D6A  6A16               	clrf	___flmul@prod+2,c
  1621  007D6C  6A17               	clrf	___flmul@prod+3,c
  1622  007D6E  5006               	movf	___flmul@a+1,w,c
  1623  007D70  0202               	mulwf	___flmul@b+1,c
  1624  007D72  CFF3 F018          	movff	prodl,___flmul@temp
  1625  007D76  CFF4 F019          	movff	prodh,___flmul@temp+1
  1626  007D7A  5018               	movf	___flmul@temp,w,c
  1627  007D7C  260E               	addwf	___flmul@grs,f,c
  1628  007D7E  0E00               	movlw	0
  1629  007D80  220F               	addwfc	___flmul@grs+1,f,c
  1630  007D82  2210               	addwfc	___flmul@grs+2,f,c
  1631  007D84  2211               	addwfc	___flmul@grs+3,f,c
  1632  007D86  5019               	movf	___flmul@temp+1,w,c
  1633  007D88  2614               	addwf	___flmul@prod,f,c
  1634  007D8A  0E00               	movlw	0
  1635  007D8C  2215               	addwfc	___flmul@prod+1,f,c
  1636  007D8E  2216               	addwfc	___flmul@prod+2,f,c
  1637  007D90  2217               	addwfc	___flmul@prod+3,f,c
  1638  007D92  5005               	movf	___flmul@a,w,c
  1639  007D94  0203               	mulwf	___flmul@b+2,c
  1640  007D96  CFF3 F018          	movff	prodl,___flmul@temp
  1641  007D9A  CFF4 F019          	movff	prodh,___flmul@temp+1
  1642  007D9E  5018               	movf	___flmul@temp,w,c
  1643  007DA0  260E               	addwf	___flmul@grs,f,c
  1644  007DA2  0E00               	movlw	0
  1645  007DA4  220F               	addwfc	___flmul@grs+1,f,c
  1646  007DA6  2210               	addwfc	___flmul@grs+2,f,c
  1647  007DA8  2211               	addwfc	___flmul@grs+3,f,c
  1648  007DAA  5019               	movf	___flmul@temp+1,w,c
  1649  007DAC  2614               	addwf	___flmul@prod,f,c
  1650  007DAE  0E00               	movlw	0
  1651  007DB0  2215               	addwfc	___flmul@prod+1,f,c
  1652  007DB2  2216               	addwfc	___flmul@prod+2,f,c
  1653  007DB4  2217               	addwfc	___flmul@prod+3,f,c
  1654  007DB6  C010  F011         	movff	___flmul@grs+2,___flmul@grs+3
  1655  007DBA  C00F  F010         	movff	___flmul@grs+1,___flmul@grs+2
  1656  007DBE  C00E  F00F         	movff	___flmul@grs,___flmul@grs+1
  1657  007DC2  6A0E               	clrf	___flmul@grs,c
  1658  007DC4  5005               	movf	___flmul@a,w,c
  1659  007DC6  0202               	mulwf	___flmul@b+1,c
  1660  007DC8  CFF3 F018          	movff	prodl,___flmul@temp
  1661  007DCC  CFF4 F019          	movff	prodh,___flmul@temp+1
  1662  007DD0  5018               	movf	___flmul@temp,w,c
  1663  007DD2  260E               	addwf	___flmul@grs,f,c
  1664  007DD4  5019               	movf	___flmul@temp+1,w,c
  1665  007DD6  220F               	addwfc	___flmul@grs+1,f,c
  1666  007DD8  0E00               	movlw	0
  1667  007DDA  2210               	addwfc	___flmul@grs+2,f,c
  1668  007DDC  0E00               	movlw	0
  1669  007DDE  2211               	addwfc	___flmul@grs+3,f,c
  1670  007DE0  5006               	movf	___flmul@a+1,w,c
  1671  007DE2  0201               	mulwf	___flmul@b,c
  1672  007DE4  CFF3 F018          	movff	prodl,___flmul@temp
  1673  007DE8  CFF4 F019          	movff	prodh,___flmul@temp+1
  1674  007DEC  5018               	movf	___flmul@temp,w,c
  1675  007DEE  260E               	addwf	___flmul@grs,f,c
  1676  007DF0  5019               	movf	___flmul@temp+1,w,c
  1677  007DF2  220F               	addwfc	___flmul@grs+1,f,c
  1678  007DF4  0E00               	movlw	0
  1679  007DF6  2210               	addwfc	___flmul@grs+2,f,c
  1680  007DF8  0E00               	movlw	0
  1681  007DFA  2211               	addwfc	___flmul@grs+3,f,c
  1682  007DFC  C010  F011         	movff	___flmul@grs+2,___flmul@grs+3
  1683  007E00  C00F  F010         	movff	___flmul@grs+1,___flmul@grs+2
  1684  007E04  C00E  F00F         	movff	___flmul@grs,___flmul@grs+1
  1685  007E08  6A0E               	clrf	___flmul@grs,c
  1686  007E0A  5005               	movf	___flmul@a,w,c
  1687  007E0C  0201               	mulwf	___flmul@b,c
  1688  007E0E  CFF3 F018          	movff	prodl,___flmul@temp
  1689  007E12  CFF4 F019          	movff	prodh,___flmul@temp+1
  1690  007E16  5018               	movf	___flmul@temp,w,c
  1691  007E18  260E               	addwf	___flmul@grs,f,c
  1692  007E1A  5019               	movf	___flmul@temp+1,w,c
  1693  007E1C  220F               	addwfc	___flmul@grs+1,f,c
  1694  007E1E  0E00               	movlw	0
  1695  007E20  2210               	addwfc	___flmul@grs+2,f,c
  1696  007E22  0E00               	movlw	0
  1697  007E24  2211               	addwfc	___flmul@grs+3,f,c
  1698  007E26  5007               	movf	___flmul@a+2,w,c
  1699  007E28  0202               	mulwf	___flmul@b+1,c
  1700  007E2A  CFF3 F018          	movff	prodl,___flmul@temp
  1701  007E2E  CFF4 F019          	movff	prodh,___flmul@temp+1
  1702  007E32  5018               	movf	___flmul@temp,w,c
  1703  007E34  2614               	addwf	___flmul@prod,f,c
  1704  007E36  5019               	movf	___flmul@temp+1,w,c
  1705  007E38  2215               	addwfc	___flmul@prod+1,f,c
  1706  007E3A  0E00               	movlw	0
  1707  007E3C  2216               	addwfc	___flmul@prod+2,f,c
  1708  007E3E  0E00               	movlw	0
  1709  007E40  2217               	addwfc	___flmul@prod+3,f,c
  1710  007E42  5006               	movf	___flmul@a+1,w,c
  1711  007E44  0203               	mulwf	___flmul@b+2,c
  1712  007E46  CFF3 F018          	movff	prodl,___flmul@temp
  1713  007E4A  CFF4 F019          	movff	prodh,___flmul@temp+1
  1714  007E4E  5018               	movf	___flmul@temp,w,c
  1715  007E50  2614               	addwf	___flmul@prod,f,c
  1716  007E52  5019               	movf	___flmul@temp+1,w,c
  1717  007E54  2215               	addwfc	___flmul@prod+1,f,c
  1718  007E56  0E00               	movlw	0
  1719  007E58  2216               	addwfc	___flmul@prod+2,f,c
  1720  007E5A  0E00               	movlw	0
  1721  007E5C  2217               	addwfc	___flmul@prod+3,f,c
  1722  007E5E  5007               	movf	___flmul@a+2,w,c
  1723  007E60  0203               	mulwf	___flmul@b+2,c
  1724  007E62  CFF3 F018          	movff	prodl,___flmul@temp
  1725  007E66  CFF4 F019          	movff	prodh,___flmul@temp+1
  1726  007E6A  5018               	movf	___flmul@temp,w,c
  1727  007E6C  6E09               	movwf	??___flmul& (0+255),c
  1728  007E6E  5019               	movf	___flmul@temp+1,w,c
  1729  007E70  6E0A               	movwf	(??___flmul+1)& (0+255),c
  1730  007E72  6A0B               	clrf	(??___flmul+2)& (0+255),c
  1731  007E74  6A0C               	clrf	(??___flmul+3)& (0+255),c
  1732  007E76  C00B  F00C         	movff	??___flmul+2,??___flmul+3
  1733  007E7A  C00A  F00B         	movff	??___flmul+1,??___flmul+2
  1734  007E7E  C009  F00A         	movff	??___flmul,??___flmul+1
  1735  007E82  6A09               	clrf	??___flmul,c
  1736  007E84  5009               	movf	??___flmul,w,c
  1737  007E86  2614               	addwf	___flmul@prod,f,c
  1738  007E88  500A               	movf	??___flmul+1,w,c
  1739  007E8A  2215               	addwfc	___flmul@prod+1,f,c
  1740  007E8C  500B               	movf	??___flmul+2,w,c
  1741  007E8E  2216               	addwfc	___flmul@prod+2,f,c
  1742  007E90  500C               	movf	??___flmul+3,w,c
  1743  007E92  2217               	addwfc	___flmul@prod+3,f,c
  1744  007E94  C00E  F009         	movff	___flmul@grs,??___flmul
  1745  007E98  C00F  F00A         	movff	___flmul@grs+1,??___flmul+1
  1746  007E9C  C010  F00B         	movff	___flmul@grs+2,??___flmul+2
  1747  007EA0  C011  F00C         	movff	___flmul@grs+3,??___flmul+3
  1748  007EA4  0E19               	movlw	25
  1749  007EA6  D005               	goto	u1910
  1750  007EA8                     u1915:
  1751  007EA8  90D8               	bcf	status,0,c
  1752  007EAA  320C               	rrcf	??___flmul+3,f,c
  1753  007EAC  320B               	rrcf	??___flmul+2,f,c
  1754  007EAE  320A               	rrcf	??___flmul+1,f,c
  1755  007EB0  3209               	rrcf	??___flmul,f,c
  1756  007EB2                     u1910:
  1757  007EB2  2EE8               	decfsz	wreg,f,c
  1758  007EB4  D7F9               	goto	u1915
  1759  007EB6  5009               	movf	??___flmul,w,c
  1760  007EB8  2614               	addwf	___flmul@prod,f,c
  1761  007EBA  500A               	movf	??___flmul+1,w,c
  1762  007EBC  2215               	addwfc	___flmul@prod+1,f,c
  1763  007EBE  500B               	movf	??___flmul+2,w,c
  1764  007EC0  2216               	addwfc	___flmul@prod+2,f,c
  1765  007EC2  500C               	movf	??___flmul+3,w,c
  1766  007EC4  2217               	addwfc	___flmul@prod+3,f,c
  1767  007EC6  C010  F011         	movff	___flmul@grs+2,___flmul@grs+3
  1768  007ECA  C00F  F010         	movff	___flmul@grs+1,___flmul@grs+2
  1769  007ECE  C00E  F00F         	movff	___flmul@grs,___flmul@grs+1
  1770  007ED2  6A0E               	clrf	___flmul@grs,c
  1771  007ED4  5012               	movf	___flmul@aexp,w,c
  1772  007ED6  C013  F009         	movff	___flmul@bexp,??___flmul
  1773  007EDA  6A0A               	clrf	(??___flmul+1)& (0+255),c
  1774  007EDC  2609               	addwf	??___flmul,f,c
  1775  007EDE  0E00               	movlw	0
  1776  007EE0  220A               	addwfc	??___flmul+1,f,c
  1777  007EE2  0E82               	movlw	130
  1778  007EE4  2409               	addwf	??___flmul,w,c
  1779  007EE6  6E18               	movwf	___flmul@temp,c
  1780  007EE8  0EFF               	movlw	255
  1781  007EEA  200A               	addwfc	??___flmul+1,w,c
  1782  007EEC  6E19               	movwf	___flmul@temp+1,c
  1783  007EEE  D00F               	goto	l622
  1784  007EF0  90D8               	bcf	status,0,c
  1785  007EF2  3614               	rlcf	___flmul@prod,f,c
  1786  007EF4  3615               	rlcf	___flmul@prod+1,f,c
  1787  007EF6  3616               	rlcf	___flmul@prod+2,f,c
  1788  007EF8  3617               	rlcf	___flmul@prod+3,f,c
  1789  007EFA  BE11               	btfsc	___flmul@grs+3,7,c
  1790  007EFC  8014               	bsf	___flmul@prod,0,c
  1791  007EFE  90D8               	bcf	status,0,c
  1792  007F00  360E               	rlcf	___flmul@grs,f,c
  1793  007F02  360F               	rlcf	___flmul@grs+1,f,c
  1794  007F04  3610               	rlcf	___flmul@grs+2,f,c
  1795  007F06  3611               	rlcf	___flmul@grs+3,f,c
  1796  007F08  0618               	decf	___flmul@temp,f,c
  1797  007F0A  A0D8               	btfss	status,0,c
  1798  007F0C  0619               	decf	___flmul@temp+1,f,c
  1799  007F0E                     l622:
  1800  007F0E  AE16               	btfss	___flmul@prod+2,7,c
  1801  007F10  D7EF               	goto	l623
  1802  007F12  0E00               	movlw	0
  1803  007F14  6E12               	movwf	___flmul@aexp,c
  1804  007F16  AE11               	btfss	___flmul@grs+3,7,c
  1805  007F18  D016               	goto	l629
  1806  007F1A  0EFF               	movlw	255
  1807  007F1C  140E               	andwf	___flmul@grs,w,c
  1808  007F1E  6E09               	movwf	??___flmul& (0+255),c
  1809  007F20  0EFF               	movlw	255
  1810  007F22  140F               	andwf	___flmul@grs+1,w,c
  1811  007F24  6E0A               	movwf	(??___flmul+1)& (0+255),c
  1812  007F26  0EFF               	movlw	255
  1813  007F28  1410               	andwf	___flmul@grs+2,w,c
  1814  007F2A  6E0B               	movwf	(??___flmul+2)& (0+255),c
  1815  007F2C  0E7F               	movlw	127
  1816  007F2E  1411               	andwf	___flmul@grs+3,w,c
  1817  007F30  6E0C               	movwf	(??___flmul+3)& (0+255),c
  1818  007F32  5009               	movf	??___flmul,w,c
  1819  007F34  100A               	iorwf	??___flmul+1,w,c
  1820  007F36  100B               	iorwf	??___flmul+2,w,c
  1821  007F38  100C               	iorwf	??___flmul+3,w,c
  1822  007F3A  A4D8               	btfss	status,2,c
  1823  007F3C  D002               	goto	u1960
  1824  007F3E  A014               	btfss	___flmul@prod,0,c
  1825  007F40  D002               	goto	l629
  1826  007F42                     u1960:
  1827  007F42  0E01               	movlw	1
  1828  007F44  6E12               	movwf	___flmul@aexp,c
  1829  007F46                     l629:
  1830  007F46  5012               	movf	___flmul@aexp,w,c
  1831  007F48  B4D8               	btfsc	status,2,c
  1832  007F4A  D01F               	goto	l631
  1833  007F4C  0E01               	movlw	1
  1834  007F4E  2614               	addwf	___flmul@prod,f,c
  1835  007F50  0E00               	movlw	0
  1836  007F52  2215               	addwfc	___flmul@prod+1,f,c
  1837  007F54  2216               	addwfc	___flmul@prod+2,f,c
  1838  007F56  2217               	addwfc	___flmul@prod+3,f,c
  1839  007F58  A017               	btfss	___flmul@prod+3,0,c
  1840  007F5A  D017               	goto	l631
  1841  007F5C  C014  F009         	movff	___flmul@prod,??___flmul
  1842  007F60  C015  F00A         	movff	___flmul@prod+1,??___flmul+1
  1843  007F64  C016  F00B         	movff	___flmul@prod+2,??___flmul+2
  1844  007F68  C017  F00C         	movff	___flmul@prod+3,??___flmul+3
  1845  007F6C  340C               	rlcf	??___flmul+3,w,c
  1846  007F6E  320C               	rrcf	??___flmul+3,f,c
  1847  007F70  320B               	rrcf	??___flmul+2,f,c
  1848  007F72  320A               	rrcf	??___flmul+1,f,c
  1849  007F74  3209               	rrcf	??___flmul,f,c
  1850  007F76  C009  F014         	movff	??___flmul,___flmul@prod
  1851  007F7A  C00A  F015         	movff	??___flmul+1,___flmul@prod+1
  1852  007F7E  C00B  F016         	movff	??___flmul+2,___flmul@prod+2
  1853  007F82  C00C  F017         	movff	??___flmul+3,___flmul@prod+3
  1854  007F86  4A18               	infsnz	___flmul@temp,f,c
  1855  007F88  2A19               	incf	___flmul@temp+1,f,c
  1856  007F8A                     l631:
  1857  007F8A  BE19               	btfsc	___flmul@temp+1,7,c
  1858  007F8C  D00D               	goto	l632
  1859  007F8E  5019               	movf	___flmul@temp+1,w,c
  1860  007F90  E103               	bnz	u1990
  1861  007F92  2818               	incf	___flmul@temp,w,c
  1862  007F94  A0D8               	btfss	status,0,c
  1863  007F96  D008               	goto	l632
  1864  007F98                     u1990:
  1865  007F98  0E00               	movlw	0
  1866  007F9A  6E14               	movwf	___flmul@prod,c
  1867  007F9C  0E00               	movlw	0
  1868  007F9E  6E15               	movwf	___flmul@prod+1,c
  1869  007FA0  0E80               	movlw	128
  1870  007FA2  6E16               	movwf	___flmul@prod+2,c
  1871  007FA4  0E7F               	movlw	127
  1872  007FA6  D020               	goto	L11
  1873  007FA8                     l632:
  1874  007FA8  BE19               	btfsc	___flmul@temp+1,7,c
  1875  007FAA  D005               	goto	u2000
  1876  007FAC  5019               	movf	___flmul@temp+1,w,c
  1877  007FAE  E10E               	bnz	l634
  1878  007FB0  0418               	decf	___flmul@temp,w,c
  1879  007FB2  B0D8               	btfsc	status,0,c
  1880  007FB4  D00B               	goto	l634
  1881  007FB6                     u2000:
  1882  007FB6  0E00               	movlw	0
  1883  007FB8  6E14               	movwf	___flmul@prod,c
  1884  007FBA  0E00               	movlw	0
  1885  007FBC  6E15               	movwf	___flmul@prod+1,c
  1886  007FBE  0E00               	movlw	0
  1887  007FC0  6E16               	movwf	___flmul@prod+2,c
  1888  007FC2  0E00               	movlw	0
  1889  007FC4  6E17               	movwf	___flmul@prod+3,c
  1890  007FC6  0E00               	movlw	0
  1891  007FC8  6E0D               	movwf	___flmul@sign,c
  1892  007FCA  D00F               	goto	l635
  1893  007FCC                     l634:
  1894  007FCC  C018  F013         	movff	___flmul@temp,___flmul@bexp
  1895  007FD0  0EFF               	movlw	255
  1896  007FD2  1614               	andwf	___flmul@prod,f,c
  1897  007FD4  0EFF               	movlw	255
  1898  007FD6  1615               	andwf	___flmul@prod+1,f,c
  1899  007FD8  0E7F               	movlw	127
  1900  007FDA  1616               	andwf	___flmul@prod+2,f,c
  1901  007FDC  0E00               	movlw	0
  1902  007FDE  1617               	andwf	___flmul@prod+3,f,c
  1903  007FE0  B013               	btfsc	___flmul@bexp,0,c
  1904  007FE2  8E16               	bsf	___flmul@prod+2,7,c
  1905  007FE4  90D8               	bcf	status,0,c
  1906  007FE6  3013               	rrcf	___flmul@bexp,w,c
  1907  007FE8                     L11:
  1908  007FE8  6E17               	movwf	___flmul@prod+3,c
  1909  007FEA                     l635:
  1910  007FEA  500D               	movf	___flmul@sign,w,c
  1911  007FEC  1217               	iorwf	___flmul@prod+3,f,c
  1912  007FEE  C014  F001         	movff	___flmul@prod,?___flmul
  1913  007FF2  C015  F002         	movff	___flmul@prod+1,?___flmul+1
  1914  007FF6  C016  F003         	movff	___flmul@prod+2,?___flmul+2
  1915  007FFA  C017  F004         	movff	___flmul@prod+3,?___flmul+3
  1916  007FFE  0012               	return	
  1917  008000                     __end_of___flmul:
  1918                           	opt stack 0
  1919                           tblptru	equ	0xFF8
  1920                           tblptrh	equ	0xFF7
  1921                           tblptrl	equ	0xFF6
  1922                           tablat	equ	0xFF5
  1923                           prodh	equ	0xFF4
  1924                           prodl	equ	0xFF3
  1925                           postinc0	equ	0xFEE
  1926                           wreg	equ	0xFE8
  1927                           postdec1	equ	0xFE5
  1928                           fsr1l	equ	0xFE1
  1929                           status	equ	0xFD8
  1930                           
  1931 ;; *************** function ___fladd *****************
  1932 ;; Defined at:
  1933 ;;		line 10 in file "C:\Program Files (x86)\Microchip\xc8\v1.45\sources\common\sprcadd.c"
  1934 ;; Parameters:    Size  Location     Type
  1935 ;;  b               4   25[COMRAM] unsigned char 
  1936 ;;  a               4   29[COMRAM] unsigned char 
  1937 ;; Auto vars:     Size  Location     Type
  1938 ;;  grs             1   44[COMRAM] unsigned char 
  1939 ;;  bexp            1   43[COMRAM] unsigned char 
  1940 ;;  aexp            1   42[COMRAM] unsigned char 
  1941 ;;  signs           1   41[COMRAM] unsigned char 
  1942 ;; Return value:  Size  Location     Type
  1943 ;;                  4   25[COMRAM] unsigned char 
  1944 ;; Registers used:
  1945 ;;		wreg, status,2, status,0
  1946 ;; Tracked objects:
  1947 ;;		On entry : 0/0
  1948 ;;		On exit  : 0/0
  1949 ;;		Unchanged: 0/0
  1950 ;; Data sizes:     COMRAM   BANK0   BANK1   BANK2   BANK3   BANK4   BANK5   BANK6   BANK7
  1951 ;;      Params:         8       0       0       0       0       0       0       0       0
  1952 ;;      Locals:         4       0       0       0       0       0       0       0       0
  1953 ;;      Temps:          8       0       0       0       0       0       0       0       0
  1954 ;;      Totals:        20       0       0       0       0       0       0       0       0
  1955 ;;Total ram usage:       20 bytes
  1956 ;; Hardware stack levels used:    1
  1957 ;; This function calls:
  1958 ;;		Nothing
  1959 ;; This function is called by:
  1960 ;;		_wait00
  1961 ;;		_getPID
  1962 ;; This function uses a non-reentrant model
  1963 ;;
  1964                           
  1965                           	psect	text7
  1966  007974                     __ptext7:
  1967                           	opt stack 0
  1968  007974                     ___fladd:
  1969                           	opt stack 29
  1970                           
  1971                           ;incstack = 0
  1972  007974  501D               	movf	___fladd@b+3,w,c
  1973  007976  0B80               	andlw	128
  1974  007978  6E2A               	movwf	___fladd@signs,c
  1975  00797A  501D               	movf	___fladd@b+3,w,c
  1976  00797C  241D               	addwf	___fladd@b+3,w,c
  1977  00797E  6E2C               	movwf	___fladd@bexp,c
  1978  007980  BE1C               	btfsc	___fladd@b+2,7,c
  1979  007982  802C               	bsf	___fladd@bexp,0,c
  1980  007984  502C               	movf	___fladd@bexp,w,c
  1981  007986  B4D8               	btfsc	status,2,c
  1982  007988  D00D               	goto	l520
  1983  00798A  282C               	incf	___fladd@bexp,w,c
  1984  00798C  A4D8               	btfss	status,2,c
  1985  00798E  D008               	goto	l521
  1986  007990  0E00               	movlw	0
  1987  007992  6E1A               	movwf	___fladd@b,c
  1988  007994  0E00               	movlw	0
  1989  007996  6E1B               	movwf	___fladd@b+1,c
  1990  007998  0E00               	movlw	0
  1991  00799A  6E1C               	movwf	___fladd@b+2,c
  1992  00799C  0E00               	movlw	0
  1993  00799E  6E1D               	movwf	___fladd@b+3,c
  1994  0079A0                     l521:
  1995  0079A0  8E1C               	bsf	___fladd@b+2,7,c
  1996  0079A2  D006               	goto	L12
  1997  0079A4                     l520:
  1998  0079A4  0E00               	movlw	0
  1999  0079A6  6E1A               	movwf	___fladd@b,c
  2000  0079A8  0E00               	movlw	0
  2001  0079AA  6E1B               	movwf	___fladd@b+1,c
  2002  0079AC  0E00               	movlw	0
  2003  0079AE  6E1C               	movwf	___fladd@b+2,c
  2004  0079B0                     L12:
  2005  0079B0  0E00               	movlw	0
  2006  0079B2  6E1D               	movwf	___fladd@b+3,c
  2007  0079B4  5021               	movf	___fladd@a+3,w,c
  2008  0079B6  0B80               	andlw	128
  2009  0079B8  6E2B               	movwf	___fladd@aexp,c
  2010  0079BA  502A               	movf	___fladd@signs,w,c
  2011  0079BC  182B               	xorwf	___fladd@aexp,w,c
  2012  0079BE  A4D8               	btfss	status,2,c
  2013  0079C0  8C2A               	bsf	___fladd@signs,6,c
  2014  0079C2  5021               	movf	___fladd@a+3,w,c
  2015  0079C4  2421               	addwf	___fladd@a+3,w,c
  2016  0079C6  6E2B               	movwf	___fladd@aexp,c
  2017  0079C8  BE20               	btfsc	___fladd@a+2,7,c
  2018  0079CA  802B               	bsf	___fladd@aexp,0,c
  2019  0079CC  502B               	movf	___fladd@aexp,w,c
  2020  0079CE  B4D8               	btfsc	status,2,c
  2021  0079D0  D00D               	goto	l525
  2022  0079D2  282B               	incf	___fladd@aexp,w,c
  2023  0079D4  A4D8               	btfss	status,2,c
  2024  0079D6  D008               	goto	l526
  2025  0079D8  0E00               	movlw	0
  2026  0079DA  6E1E               	movwf	___fladd@a,c
  2027  0079DC  0E00               	movlw	0
  2028  0079DE  6E1F               	movwf	___fladd@a+1,c
  2029  0079E0  0E00               	movlw	0
  2030  0079E2  6E20               	movwf	___fladd@a+2,c
  2031  0079E4  0E00               	movlw	0
  2032  0079E6  6E21               	movwf	___fladd@a+3,c
  2033  0079E8                     l526:
  2034  0079E8  8E20               	bsf	___fladd@a+2,7,c
  2035  0079EA  D006               	goto	L13
  2036  0079EC                     l525:
  2037  0079EC  0E00               	movlw	0
  2038  0079EE  6E1E               	movwf	___fladd@a,c
  2039  0079F0  0E00               	movlw	0
  2040  0079F2  6E1F               	movwf	___fladd@a+1,c
  2041  0079F4  0E00               	movlw	0
  2042  0079F6  6E20               	movwf	___fladd@a+2,c
  2043  0079F8                     L13:
  2044  0079F8  0E00               	movlw	0
  2045  0079FA  6E21               	movwf	___fladd@a+3,c
  2046  0079FC  502C               	movf	___fladd@bexp,w,c
  2047  0079FE  5C2B               	subwf	___fladd@aexp,w,c
  2048  007A00  B0D8               	btfsc	status,0,c
  2049  007A02  D022               	goto	l528
  2050  007A04  AC2A               	btfss	___fladd@signs,6,c
  2051  007A06  D002               	goto	l529
  2052  007A08  0E80               	movlw	128
  2053  007A0A  1A2A               	xorwf	___fladd@signs,f,c
  2054  007A0C                     l529:
  2055  007A0C  C02C  F02D         	movff	___fladd@bexp,___fladd@grs
  2056  007A10  C02B  F02C         	movff	___fladd@aexp,___fladd@bexp
  2057  007A14  C02D  F02B         	movff	___fladd@grs,___fladd@aexp
  2058  007A18  C01A  F02D         	movff	___fladd@b,___fladd@grs
  2059  007A1C  C01E  F01A         	movff	___fladd@a,___fladd@b
  2060  007A20  C02D  F01E         	movff	___fladd@grs,___fladd@a
  2061  007A24  C01B  F02D         	movff	___fladd@b+1,___fladd@grs
  2062  007A28  C01F  F01B         	movff	___fladd@a+1,___fladd@b+1
  2063  007A2C  C02D  F01F         	movff	___fladd@grs,___fladd@a+1
  2064  007A30  C01C  F02D         	movff	___fladd@b+2,___fladd@grs
  2065  007A34  C020  F01C         	movff	___fladd@a+2,___fladd@b+2
  2066  007A38  C02D  F020         	movff	___fladd@grs,___fladd@a+2
  2067  007A3C  C01D  F02D         	movff	___fladd@b+3,___fladd@grs
  2068  007A40  C021  F01D         	movff	___fladd@a+3,___fladd@b+3
  2069  007A44  C02D  F021         	movff	___fladd@grs,___fladd@a+3
  2070  007A48                     l528:
  2071  007A48  0E00               	movlw	0
  2072  007A4A  6E2D               	movwf	___fladd@grs,c
  2073  007A4C  502C               	movf	___fladd@bexp,w,c
  2074  007A4E  6E22               	movwf	??___fladd& (0+255),c
  2075  007A50  6A23               	clrf	(??___fladd+1)& (0+255),c
  2076  007A52  1E22               	comf	??___fladd,f,c
  2077  007A54  1E23               	comf	??___fladd+1,f,c
  2078  007A56  4A22               	infsnz	??___fladd,f,c
  2079  007A58  2A23               	incf	??___fladd+1,f,c
  2080  007A5A  502B               	movf	___fladd@aexp,w,c
  2081  007A5C  6E24               	movwf	(??___fladd+2)& (0+255),c
  2082  007A5E  6A25               	clrf	(??___fladd+3)& (0+255),c
  2083  007A60  5022               	movf	??___fladd,w,c
  2084  007A62  2624               	addwf	??___fladd+2,f,c
  2085  007A64  5023               	movf	??___fladd+1,w,c
  2086  007A66  2225               	addwfc	??___fladd+3,f,c
  2087  007A68  BE25               	btfsc	??___fladd+3,7,c
  2088  007A6A  D02C               	goto	l532
  2089  007A6C  5025               	movf	??___fladd+3,w,c
  2090  007A6E  E104               	bnz	u1530
  2091  007A70  0E1A               	movlw	26
  2092  007A72  5C24               	subwf	??___fladd+2,w,c
  2093  007A74  A0D8               	btfss	status,0,c
  2094  007A76  D026               	goto	l532
  2095  007A78                     u1530:
  2096  007A78  501A               	movf	___fladd@b,w,c
  2097  007A7A  101B               	iorwf	___fladd@b+1,w,c
  2098  007A7C  101C               	iorwf	___fladd@b+2,w,c
  2099  007A7E  101D               	iorwf	___fladd@b+3,w,c
  2100  007A80  B4D8               	btfsc	status,2,c
  2101  007A82  D002               	goto	u1540
  2102  007A84  0E01               	movlw	1
  2103  007A86  D001               	goto	u1550
  2104  007A88                     u1540:
  2105  007A88  0E00               	movlw	0
  2106  007A8A                     u1550:
  2107  007A8A  6E2D               	movwf	___fladd@grs,c
  2108  007A8C  0E00               	movlw	0
  2109  007A8E  6E1A               	movwf	___fladd@b,c
  2110  007A90  0E00               	movlw	0
  2111  007A92  6E1B               	movwf	___fladd@b+1,c
  2112  007A94  0E00               	movlw	0
  2113  007A96  6E1C               	movwf	___fladd@b+2,c
  2114  007A98  0E00               	movlw	0
  2115  007A9A  6E1D               	movwf	___fladd@b+3,c
  2116  007A9C  C02B  F02C         	movff	___fladd@aexp,___fladd@bexp
  2117  007AA0  D015               	goto	u1580
  2118  007AA2                     l533:
  2119  007AA2  A02D               	btfss	___fladd@grs,0,c
  2120  007AA4  D005               	goto	l534
  2121  007AA6  90D8               	bcf	status,0,c
  2122  007AA8  302D               	rrcf	___fladd@grs,w,c
  2123  007AAA  0901               	iorlw	1
  2124  007AAC  6E2D               	movwf	___fladd@grs,c
  2125  007AAE  D002               	goto	l535
  2126  007AB0                     l534:
  2127  007AB0  90D8               	bcf	status,0,c
  2128  007AB2  322D               	rrcf	___fladd@grs,f,c
  2129  007AB4                     l535:
  2130  007AB4  B01A               	btfsc	___fladd@b,0,c
  2131  007AB6  8E2D               	bsf	___fladd@grs,7,c
  2132  007AB8  341D               	rlcf	___fladd@b+3,w,c
  2133  007ABA  321D               	rrcf	___fladd@b+3,f,c
  2134  007ABC  321C               	rrcf	___fladd@b+2,f,c
  2135  007ABE  321B               	rrcf	___fladd@b+1,f,c
  2136  007AC0  321A               	rrcf	___fladd@b,f,c
  2137  007AC2  2A2C               	incf	___fladd@bexp,f,c
  2138  007AC4                     l532:
  2139  007AC4  502B               	movf	___fladd@aexp,w,c
  2140  007AC6  5C2C               	subwf	___fladd@bexp,w,c
  2141  007AC8  A0D8               	btfss	status,0,c
  2142  007ACA  D7EB               	goto	l533
  2143  007ACC                     u1580:
  2144  007ACC  BC2A               	btfsc	___fladd@signs,6,c
  2145  007ACE  D029               	goto	l538
  2146  007AD0  502C               	movf	___fladd@bexp,w,c
  2147  007AD2  A4D8               	btfss	status,2,c
  2148  007AD4  D009               	goto	l539
  2149  007AD6  0E00               	movlw	0
  2150  007AD8  6E1A               	movwf	?___fladd,c
  2151  007ADA  0E00               	movlw	0
  2152  007ADC  6E1B               	movwf	?___fladd+1,c
  2153  007ADE  0E00               	movlw	0
  2154  007AE0  6E1C               	movwf	?___fladd+2,c
  2155  007AE2  0E00               	movlw	0
  2156  007AE4  6E1D               	movwf	?___fladd+3,c
  2157  007AE6  0012               	return	
  2158  007AE8                     l539:
  2159  007AE8  501E               	movf	___fladd@a,w,c
  2160  007AEA  261A               	addwf	___fladd@b,f,c
  2161  007AEC  501F               	movf	___fladd@a+1,w,c
  2162  007AEE  221B               	addwfc	___fladd@b+1,f,c
  2163  007AF0  5020               	movf	___fladd@a+2,w,c
  2164  007AF2  221C               	addwfc	___fladd@b+2,f,c
  2165  007AF4  5021               	movf	___fladd@a+3,w,c
  2166  007AF6  221D               	addwfc	___fladd@b+3,f,c
  2167  007AF8  A01D               	btfss	___fladd@b+3,0,c
  2168  007AFA  D083               	goto	u1710
  2169  007AFC  A02D               	btfss	___fladd@grs,0,c
  2170  007AFE  D006               	goto	l542
  2171  007B00  90D8               	bcf	status,0,c
  2172  007B02  322D               	rrcf	___fladd@grs,f,c
  2173  007B04  502D               	movf	___fladd@grs,w,c
  2174  007B06  0901               	iorlw	1
  2175  007B08  6E2D               	movwf	___fladd@grs,c
  2176  007B0A  D002               	goto	l543
  2177  007B0C                     l542:
  2178  007B0C  90D8               	bcf	status,0,c
  2179  007B0E  322D               	rrcf	___fladd@grs,f,c
  2180  007B10                     l543:
  2181  007B10  B01A               	btfsc	___fladd@b,0,c
  2182  007B12  8E2D               	bsf	___fladd@grs,7,c
  2183  007B14  341D               	rlcf	___fladd@b+3,w,c
  2184  007B16  321D               	rrcf	___fladd@b+3,f,c
  2185  007B18  321C               	rrcf	___fladd@b+2,f,c
  2186  007B1A  321B               	rrcf	___fladd@b+1,f,c
  2187  007B1C  321A               	rrcf	___fladd@b,f,c
  2188  007B1E  2A2C               	incf	___fladd@bexp,f,c
  2189  007B20  D070               	goto	u1710
  2190  007B22                     l538:
  2191  007B22  501E               	movf	___fladd@a,w,c
  2192  007B24  5C1A               	subwf	___fladd@b,w,c
  2193  007B26  501F               	movf	___fladd@a+1,w,c
  2194  007B28  581B               	subwfb	___fladd@b+1,w,c
  2195  007B2A  5020               	movf	___fladd@a+2,w,c
  2196  007B2C  581C               	subwfb	___fladd@b+2,w,c
  2197  007B2E  501D               	movf	___fladd@b+3,w,c
  2198  007B30  0A80               	xorlw	128
  2199  007B32  6E22               	movwf	??___fladd& (0+255),c
  2200  007B34  5021               	movf	___fladd@a+3,w,c
  2201  007B36  0A80               	xorlw	128
  2202  007B38  5822               	subwfb	??___fladd& (0+255),w,c
  2203  007B3A  B0D8               	btfsc	status,0,c
  2204  007B3C  D036               	goto	l546
  2205  007B3E  C01A  F022         	movff	___fladd@b,??___fladd
  2206  007B42  C01B  F023         	movff	___fladd@b+1,??___fladd+1
  2207  007B46  C01C  F024         	movff	___fladd@b+2,??___fladd+2
  2208  007B4A  C01D  F025         	movff	___fladd@b+3,??___fladd+3
  2209  007B4E  1E22               	comf	??___fladd,f,c
  2210  007B50  1E23               	comf	??___fladd+1,f,c
  2211  007B52  1E24               	comf	??___fladd+2,f,c
  2212  007B54  1E25               	comf	??___fladd+3,f,c
  2213  007B56  2A22               	incf	??___fladd,f,c
  2214  007B58  0E00               	movlw	0
  2215  007B5A  2223               	addwfc	??___fladd+1,f,c
  2216  007B5C  2224               	addwfc	??___fladd+2,f,c
  2217  007B5E  2225               	addwfc	??___fladd+3,f,c
  2218  007B60  501E               	movf	___fladd@a,w,c
  2219  007B62  2422               	addwf	??___fladd,w,c
  2220  007B64  6E26               	movwf	(??___fladd+4)& (0+255),c
  2221  007B66  501F               	movf	___fladd@a+1,w,c
  2222  007B68  2023               	addwfc	??___fladd+1,w,c
  2223  007B6A  6E27               	movwf	(??___fladd+5)& (0+255),c
  2224  007B6C  5020               	movf	___fladd@a+2,w,c
  2225  007B6E  2024               	addwfc	??___fladd+2,w,c
  2226  007B70  6E28               	movwf	(??___fladd+6)& (0+255),c
  2227  007B72  5021               	movf	___fladd@a+3,w,c
  2228  007B74  2025               	addwfc	??___fladd+3,w,c
  2229  007B76  6E29               	movwf	(??___fladd+7)& (0+255),c
  2230  007B78  0EFF               	movlw	255
  2231  007B7A  2426               	addwf	??___fladd+4,w,c
  2232  007B7C  6E1A               	movwf	___fladd@b,c
  2233  007B7E  0EFF               	movlw	255
  2234  007B80  2027               	addwfc	??___fladd+5,w,c
  2235  007B82  6E1B               	movwf	___fladd@b+1,c
  2236  007B84  0EFF               	movlw	255
  2237  007B86  2028               	addwfc	??___fladd+6,w,c
  2238  007B88  6E1C               	movwf	___fladd@b+2,c
  2239  007B8A  0EFF               	movlw	255
  2240  007B8C  2029               	addwfc	??___fladd+7,w,c
  2241  007B8E  6E1D               	movwf	___fladd@b+3,c
  2242  007B90  0E80               	movlw	128
  2243  007B92  1A2A               	xorwf	___fladd@signs,f,c
  2244  007B94  6C2D               	negf	___fladd@grs,c
  2245  007B96  502D               	movf	___fladd@grs,w,c
  2246  007B98  A4D8               	btfss	status,2,c
  2247  007B9A  D00F               	goto	l548
  2248  007B9C  0E01               	movlw	1
  2249  007B9E  261A               	addwf	___fladd@b,f,c
  2250  007BA0  0E00               	movlw	0
  2251  007BA2  221B               	addwfc	___fladd@b+1,f,c
  2252  007BA4  221C               	addwfc	___fladd@b+2,f,c
  2253  007BA6  221D               	addwfc	___fladd@b+3,f,c
  2254  007BA8  D008               	goto	l548
  2255  007BAA                     l546:
  2256  007BAA  501E               	movf	___fladd@a,w,c
  2257  007BAC  5E1A               	subwf	___fladd@b,f,c
  2258  007BAE  501F               	movf	___fladd@a+1,w,c
  2259  007BB0  5A1B               	subwfb	___fladd@b+1,f,c
  2260  007BB2  5020               	movf	___fladd@a+2,w,c
  2261  007BB4  5A1C               	subwfb	___fladd@b+2,f,c
  2262  007BB6  5021               	movf	___fladd@a+3,w,c
  2263  007BB8  5A1D               	subwfb	___fladd@b+3,f,c
  2264  007BBA                     l548:
  2265  007BBA  501A               	movf	___fladd@b,w,c
  2266  007BBC  101B               	iorwf	___fladd@b+1,w,c
  2267  007BBE  101C               	iorwf	___fladd@b+2,w,c
  2268  007BC0  101D               	iorwf	___fladd@b+3,w,c
  2269  007BC2  A4D8               	btfss	status,2,c
  2270  007BC4  D01C               	goto	l555
  2271  007BC6  502D               	movf	___fladd@grs,w,c
  2272  007BC8  A4D8               	btfss	status,2,c
  2273  007BCA  D019               	goto	l555
  2274  007BCC  0E00               	movlw	0
  2275  007BCE  6E1A               	movwf	?___fladd,c
  2276  007BD0  0E00               	movlw	0
  2277  007BD2  6E1B               	movwf	?___fladd+1,c
  2278  007BD4  0E00               	movlw	0
  2279  007BD6  6E1C               	movwf	?___fladd+2,c
  2280  007BD8  0E00               	movlw	0
  2281  007BDA  6E1D               	movwf	?___fladd+3,c
  2282  007BDC  0012               	return	
  2283  007BDE  90D8               	bcf	status,0,c
  2284  007BE0  361A               	rlcf	___fladd@b,f,c
  2285  007BE2  361B               	rlcf	___fladd@b+1,f,c
  2286  007BE4  361C               	rlcf	___fladd@b+2,f,c
  2287  007BE6  361D               	rlcf	___fladd@b+3,f,c
  2288  007BE8  BE2D               	btfsc	___fladd@grs,7,c
  2289  007BEA  801A               	bsf	___fladd@b,0,c
  2290  007BEC  A02D               	btfss	___fladd@grs,0,c
  2291  007BEE  D002               	goto	l553
  2292  007BF0  80D8               	bsf	status,0,c
  2293  007BF2  D001               	goto	L14
  2294  007BF4                     l553:
  2295  007BF4  90D8               	bcf	status,0,c
  2296  007BF6                     L14:
  2297  007BF6  362D               	rlcf	___fladd@grs,f,c
  2298  007BF8  502C               	movf	___fladd@bexp,w,c
  2299  007BFA  A4D8               	btfss	status,2,c
  2300  007BFC  062C               	decf	___fladd@bexp,f,c
  2301  007BFE                     l555:
  2302  007BFE  AE1C               	btfss	___fladd@b+2,7,c
  2303  007C00  D7EE               	goto	l551
  2304  007C02                     u1710:
  2305  007C02  0E00               	movlw	0
  2306  007C04  6E2B               	movwf	___fladd@aexp,c
  2307  007C06  AE2D               	btfss	___fladd@grs,7,c
  2308  007C08  D00A               	goto	l560
  2309  007C0A  C02D  F022         	movff	___fladd@grs,??___fladd
  2310  007C0E  0E7F               	movlw	127
  2311  007C10  1622               	andwf	??___fladd,f,c
  2312  007C12  A4D8               	btfss	status,2,c
  2313  007C14  D002               	goto	u1740
  2314  007C16  A01A               	btfss	___fladd@b,0,c
  2315  007C18  D002               	goto	l560
  2316  007C1A                     u1740:
  2317  007C1A  0E01               	movlw	1
  2318  007C1C  6E2B               	movwf	___fladd@aexp,c
  2319  007C1E                     l560:
  2320  007C1E  502B               	movf	___fladd@aexp,w,c
  2321  007C20  B4D8               	btfsc	status,2,c
  2322  007C22  D020               	goto	l563
  2323  007C24  0E01               	movlw	1
  2324  007C26  261A               	addwf	___fladd@b,f,c
  2325  007C28  0E00               	movlw	0
  2326  007C2A  221B               	addwfc	___fladd@b+1,f,c
  2327  007C2C  221C               	addwfc	___fladd@b+2,f,c
  2328  007C2E  221D               	addwfc	___fladd@b+3,f,c
  2329  007C30  A01D               	btfss	___fladd@b+3,0,c
  2330  007C32  D018               	goto	l563
  2331  007C34  C01A  F022         	movff	___fladd@b,??___fladd
  2332  007C38  C01B  F023         	movff	___fladd@b+1,??___fladd+1
  2333  007C3C  C01C  F024         	movff	___fladd@b+2,??___fladd+2
  2334  007C40  C01D  F025         	movff	___fladd@b+3,??___fladd+3
  2335  007C44  3425               	rlcf	??___fladd+3,w,c
  2336  007C46  3225               	rrcf	??___fladd+3,f,c
  2337  007C48  3224               	rrcf	??___fladd+2,f,c
  2338  007C4A  3223               	rrcf	??___fladd+1,f,c
  2339  007C4C  3222               	rrcf	??___fladd,f,c
  2340  007C4E  C022  F01A         	movff	??___fladd,___fladd@b
  2341  007C52  C023  F01B         	movff	??___fladd+1,___fladd@b+1
  2342  007C56  C024  F01C         	movff	??___fladd+2,___fladd@b+2
  2343  007C5A  C025  F01D         	movff	??___fladd+3,___fladd@b+3
  2344  007C5E  282C               	incf	___fladd@bexp,w,c
  2345  007C60  A4D8               	btfss	status,2,c
  2346  007C62  2A2C               	incf	___fladd@bexp,f,c
  2347  007C64                     l563:
  2348  007C64  282C               	incf	___fladd@bexp,w,c
  2349  007C66  B4D8               	btfsc	status,2,c
  2350  007C68  D003               	goto	u1790
  2351  007C6A  502C               	movf	___fladd@bexp,w,c
  2352  007C6C  A4D8               	btfss	status,2,c
  2353  007C6E  D00D               	goto	l567
  2354  007C70                     u1790:
  2355  007C70  0E00               	movlw	0
  2356  007C72  6E1A               	movwf	___fladd@b,c
  2357  007C74  0E00               	movlw	0
  2358  007C76  6E1B               	movwf	___fladd@b+1,c
  2359  007C78  0E00               	movlw	0
  2360  007C7A  6E1C               	movwf	___fladd@b+2,c
  2361  007C7C  0E00               	movlw	0
  2362  007C7E  6E1D               	movwf	___fladd@b+3,c
  2363  007C80  502C               	movf	___fladd@bexp,w,c
  2364  007C82  A4D8               	btfss	status,2,c
  2365  007C84  D002               	goto	l567
  2366  007C86  0E00               	movlw	0
  2367  007C88  6E2A               	movwf	___fladd@signs,c
  2368  007C8A                     l567:
  2369  007C8A  A02C               	btfss	___fladd@bexp,0,c
  2370  007C8C  D002               	goto	l568
  2371  007C8E  8E1C               	bsf	___fladd@b+2,7,c
  2372  007C90  D001               	goto	l569
  2373  007C92                     l568:
  2374  007C92  9E1C               	bcf	___fladd@b+2,7,c
  2375  007C94                     l569:
  2376  007C94  90D8               	bcf	status,0,c
  2377  007C96  302C               	rrcf	___fladd@bexp,w,c
  2378  007C98  6E1D               	movwf	___fladd@b+3,c
  2379  007C9A  BE2A               	btfsc	___fladd@signs,7,c
  2380  007C9C  8E1D               	bsf	___fladd@b+3,7,c
  2381  007C9E  C01A  F01A         	movff	___fladd@b,?___fladd
  2382  007CA2  C01B  F01B         	movff	___fladd@b+1,?___fladd+1
  2383  007CA6  C01C  F01C         	movff	___fladd@b+2,?___fladd+2
  2384  007CAA  C01D  F01D         	movff	___fladd@b+3,?___fladd+3
  2385  007CAE  0012               	return	
  2386  007CB0                     __end_of___fladd:
  2387                           	opt stack 0
  2388  0000                     tblptru	equ	0xFF8
  2389                           tblptrh	equ	0xFF7
  2390                           tblptrl	equ	0xFF6
  2391                           tablat	equ	0xFF5
  2392                           prodh	equ	0xFF4
  2393                           prodl	equ	0xFF3
  2394                           postinc0	equ	0xFEE
  2395                           wreg	equ	0xFE8
  2396                           postdec1	equ	0xFE5
  2397                           fsr1l	equ	0xFE1
  2398                           status	equ	0xFD8
  2399                           tblptru	equ	0xFF8
  2400                           tblptrh	equ	0xFF7
  2401                           tblptrl	equ	0xFF6
  2402                           tablat	equ	0xFF5
  2403                           prodh	equ	0xFF4
  2404                           prodl	equ	0xFF3
  2405                           postinc0	equ	0xFEE
  2406                           wreg	equ	0xFE8
  2407                           postdec1	equ	0xFE5
  2408                           fsr1l	equ	0xFE1
  2409                           status	equ	0xFD8
  2410                           
  2411                           	psect	rparam
  2412  0000                     tblptru	equ	0xFF8
  2413                           tblptrh	equ	0xFF7
  2414                           tblptrl	equ	0xFF6
  2415                           tablat	equ	0xFF5
  2416                           prodh	equ	0xFF4
  2417                           prodl	equ	0xFF3
  2418                           postinc0	equ	0xFEE
  2419                           wreg	equ	0xFE8
  2420                           postdec1	equ	0xFE5
  2421                           fsr1l	equ	0xFE1
  2422                           status	equ	0xFD8


Data Sizes:
    Strings     0
    Constant    0
    Data        4
    BSS         28
    Persistent  0
    Stack       0

Auto Spaces:
    Space          Size  Autos    Used
    COMRAM           95     57      89
    BANK0           160      0       0
    BANK1           256      0       0
    BANK2           256      0       0
    BANK3           256      0       0
    BANK4           256      0       0
    BANK5           256      0       0
    BANK6           256      0       0
    BANK7           256      0       0

Pointer List with Targets:

    None.

Critical Paths under _main in COMRAM

    _main->_wait00
    _wait00->___fladd
    _getPID->___fladd
    ___fladd->___flmul

Critical Paths under _main in BANK0

    None.

Critical Paths under _main in BANK1

    None.

Critical Paths under _main in BANK2

    None.

Critical Paths under _main in BANK3

    None.

Critical Paths under _main in BANK4

    None.

Critical Paths under _main in BANK5

    None.

Critical Paths under _main in BANK6

    None.

Critical Paths under _main in BANK7

    None.

Call Graph Tables:

 ---------------------------------------------------------------------------------
 (Depth) Function   	        Calls       Base Space   Used Autos Params    Refs
 ---------------------------------------------------------------------------------
 (0) _main                                                 0     0      0    9843
                             _getPID
                           _led_sens
                             _wait00
 ---------------------------------------------------------------------------------
 (1) _wait00                                              12     8      4    4226
                                             45 COMRAM    12     8      4
                            ___fladd
                             ___flge
 ---------------------------------------------------------------------------------
 (2) ___flge                                              12     4      8     790
                                              0 COMRAM    12     4      8
 ---------------------------------------------------------------------------------
 (1) _led_sens                                             0     0      0       0
 ---------------------------------------------------------------------------------
 (1) _getPID                                              10     6      4    5617
                                             45 COMRAM    10     6      4
                            ___fladd
                            ___flmul
                           ___xxtofl
 ---------------------------------------------------------------------------------
 (2) ___xxtofl                                            14    10      4     550
                                              0 COMRAM    14    10      4
 ---------------------------------------------------------------------------------
 (2) ___flmul                                             25    17      8    2048
                                              0 COMRAM    25    17      8
 ---------------------------------------------------------------------------------
 (2) ___fladd                                             20    12      8    2996
                                             25 COMRAM    20    12      8
                            ___flmul (ARG)
                           ___xxtofl (ARG)
 ---------------------------------------------------------------------------------
 Estimated maximum stack depth 2
 ---------------------------------------------------------------------------------

 Call Graph Graphs:

 _main (ROOT)
   _getPID
     ___fladd
       ___flmul (ARG)
       ___xxtofl (ARG)
     ___flmul
     ___xxtofl
   _led_sens
   _wait00
     ___fladd
       ___flmul (ARG)
       ___xxtofl (ARG)
     ___flge

 Address spaces:
Name               Size   Autos  Total    Cost      Usage
BIGRAM             7FF      0       0      21        0.0%
EEDATA             100      0       0       0        0.0%
BITBANK7           100      0       0      18        0.0%
BANK7              100      0       0      19        0.0%
BITBANK6           100      0       0      16        0.0%
BANK6              100      0       0      17        0.0%
BITBANK5           100      0       0      14        0.0%
BANK5              100      0       0      15        0.0%
BITBANK4           100      0       0      12        0.0%
BANK4              100      0       0      13        0.0%
BITBANK3           100      0       0      10        0.0%
BANK3              100      0       0      11        0.0%
BITBANK2           100      0       0       8        0.0%
BANK2              100      0       0       9        0.0%
BITBANK1           100      0       0       6        0.0%
BANK1              100      0       0       7        0.0%
BITBANK0            A0      0       0       4        0.0%
BANK0               A0      0       0       5        0.0%
BITCOMRAM           5F      0       0       0        0.0%
COMRAM              5F     39      59       1       93.7%
BITSFR               0      0       0     200        0.0%
SFR                  0      0       0     200        0.0%
STACK                0      0       0       2        0.0%
NULL                 0      0       0       0        0.0%
ABS                  0      0      59      20        0.0%
DATA                 0      0      59       3        0.0%
CODE                 0      0       0       0        0.0%


Microchip Technology PIC18 Macro Assembler V1.45 build -152302408 
Symbol Table                                                                                   Fri Mar 02 11:46:48 2018

                      _D 003E                        _I 0042                        _P 0046  
                     l40 72EE                       l70 7850                       l62 7800  
                     l39 73B4                       l63 77FC                       l80 78B0  
                     l72 7868                       l82 78C6                       l74 7880  
                     l66 7828                       l84 78D6                       l76 7890  
                     l68 7840                       l86 78E6                       l78 78A0  
                     l88 78FE                       _kd 004A                       _ki 004E  
                     _kp 0056                      l520 79A4                      l521 79A0  
                    l611 7CE0                      l291 7412                      l532 7AC4  
                    l612 7CDC                      l292 7446                      l533 7AA2  
                    l525 79EC                      l613 7CF0                      l293 7484  
                    l542 7B0C                      l534 7AB0                      l526 79E8  
                    l622 7F0E                      l294 74C2                      l551 7BDE  
                    l543 7B10                      l535 7AB4                      l631 7F8A  
                    l623 7EF0                      l615 7D20                      l560 7C1E  
                    l528 7A48                      l632 7FA8                      l616 7D1C  
                    l640 754C                      l553 7BF4                      l529 7A0C  
                    l617 7D30                      l641 756A                      l546 7BAA  
                    l538 7B22                      l634 7FCC                      l618 7D4E  
                    l650 75E0                      l563 7C64                      l555 7BFE  
                    l539 7AE8                      l635 7FEA                      l643 757C  
                    l548 7BBA                      l644 7570                      l629 7F46  
                    l654 760A                      l646 75BA                      l567 7C8A  
                    l655 763C                      l647 75A2                      l639 753C  
                    l568 7C92                      l569 7C94                      l649 75EC  
                    u805 72CE                      u815 72D8                      u807 72D0  
                    u817 72DA                      u775 72B0                      u785 72BA  
                    u777 72B2                      u795 72C4                      u787 72BC  
                    u797 72C6                      _pid 003A                      wreg 000FE8  
           ___flmul@aexp 0012             ___flmul@bexp 0013             ___flmul@sign 000D  
           ___flmul@temp 0018             ___flmul@prod 0014                     l1301 74FA  
                   u2000 7FB6                     u2130 75F6                     u2210 7804  
                   u2310 7838                     u1530 7A78                     u2410 7860  
                   u1540 7A88                     u2180 7380                     u2260 7820  
                   u1710 7C02                     u1550 7A8A                     u1740 7C1A  
                   u1580 7ACC                     u1900 7D3C                     u2460 7878  
                   u1910 7EB2                     u1915 7EA8                     u2660 78C0  
                   u1790 7C70                     u1960 7F42                     u1990 7F98  
                   _main 77E0                     fsr1l 000FE1                     prodh 000FF4  
                   prodl 000FF3                     start 2000             ___param_bank 000000  
        __end_of___fladd 7CB0                    ?_main 0001          __end_of___flmul 8000  
                  _PORTA 000F80                    _PORTB 000F81                    _PORTC 000F82  
                  _TRISA 000F92                    _TRISB 000F93                    _TRISC 000F94  
                  _error 0054                    tablat 000FF5                    status 000FD8  
        __initialization 7276             __end_of_main 7974                   ??_main 003A  
          __activetblptr 000000                   _ADCON1 000FC1         __end_of___xxtofl 764E  
                 ___flge 73DE         __end_of_led_sens 72DC                ??___fladd 0022  
              ??___flmul 0009                   _getPID 764E                   clear_0 729C  
                 _wait00 72DC             __pdataCOMRAM 0056                   tblptrh 000FF7  
                 tblptrl 000FF6                   tblptru 000FF8               ___flge@ff1 0001  
             ___flge@ff2 0005             ___xxtofl@arg 000B             ___xxtofl@exp 000A  
           ___xxtofl@val 0001               __accesstop 0060  __end_of__initialization 72A2  
          ___rparam_used 000001           __pcstackCOMRAM 0001               _getPID$714 0034  
                ?___flge 0001                  ?_getPID 002E                  ?_wait00 002E  
              ?___xxtofl 0001                ?_led_sens 0001                  __Hparam 0000  
                __Lparam 0000          __size_of___flge 0120                  ___fladd 7974  
                ___flmul 7CB0          __size_of_getPID 0192                  __pcinit 7276  
                __ramtop 0800          __size_of_wait00 0102                  __ptext0 77E0  
                __ptext1 72DC                  __ptext2 73DE                  __ptext3 72A8  
                __ptext4 764E                  __ptext5 74FE                  __ptext6 7CB0  
                __ptext7 7974               ??___xxtofl 0005     end_of_initialization 72A2  
             ??_led_sens 0001                  wait00@i 0036                  wait00@j 0032  
                wait00@k 002E                  postdec1 000FE5                  postinc0 000FEE  
              _PORTAbits 000F80                _PORTBbits 000F81              ___fladd@grs 002D  
          ___xxtofl@sign 0009              ___flmul@grs 000E           __end_of___flge 74FE  
         __end_of_getPID 77E0            __pidataCOMRAM 2008           __end_of_wait00 73DE  
    start_initialization 7276                 ??___flge 0009                 ??_getPID 0032  
               ??_wait00 0032                ___fladd@a 001E                ___fladd@b 001A  
              ___flmul@a 0005                ___flmul@b 0001              __pbssCOMRAM 003A  
      __size_of___xxtofl 0150        __size_of_led_sens 0034                 ?___fladd 001A  
               ?___flmul 0001                copy_data0 728A                 __Hrparam 0000  
               __Lrparam 0000         __size_of___fladd 033C         __size_of___flmul 0350  
               ___xxtofl 74FE                 _led_sens 72A8            __size_of_main 0194  
         _previous_error 0052            ___fladd@signs 002A             ___fladd@aexp 002B  
           ___fladd@bexp 002C  
